
main.elf:     file format elf32-littleriscv


Disassembly of section .text:

00000000 <_isr_handler>:
       0:	0080006f          	j	8 <_isr_routine>
       4:	1440006f          	j	148 <_start>

00000008 <_isr_routine>:
       8:	f8010113          	addi	sp,sp,-128
       c:	00112023          	sw	ra,0(sp)
      10:	00312423          	sw	gp,8(sp)
      14:	00412623          	sw	tp,12(sp)
      18:	00512823          	sw	t0,16(sp)
      1c:	00612a23          	sw	t1,20(sp)
      20:	00712c23          	sw	t2,24(sp)
      24:	00812e23          	sw	s0,28(sp)
      28:	02912023          	sw	s1,32(sp)
      2c:	02a12223          	sw	a0,36(sp)
      30:	02b12423          	sw	a1,40(sp)
      34:	02c12623          	sw	a2,44(sp)
      38:	02d12823          	sw	a3,48(sp)
      3c:	02e12a23          	sw	a4,52(sp)
      40:	02f12c23          	sw	a5,56(sp)
      44:	03012e23          	sw	a6,60(sp)
      48:	05112023          	sw	a7,64(sp)
      4c:	05212223          	sw	s2,68(sp)
      50:	05312423          	sw	s3,72(sp)
      54:	05412623          	sw	s4,76(sp)
      58:	05512823          	sw	s5,80(sp)
      5c:	05612a23          	sw	s6,84(sp)
      60:	05712c23          	sw	s7,88(sp)
      64:	05812e23          	sw	s8,92(sp)
      68:	07912023          	sw	s9,96(sp)
      6c:	07a12223          	sw	s10,100(sp)
      70:	07b12423          	sw	s11,104(sp)
      74:	07c12623          	sw	t3,108(sp)
      78:	07d12823          	sw	t4,112(sp)
      7c:	07e12a23          	sw	t5,116(sp)
      80:	07f12c23          	sw	t6,120(sp)
      84:	342022f3          	csrr	t0,mcause
      88:	80000337          	lui	t1,0x80000
      8c:	02536463          	bltu	t1,t0,b4 <external_irq>
      90:	00028833          	add	a6,t0,zero
      94:	00b00313          	li	t1,11
      98:	00628463          	beq	t0,t1,a0 <skip_init_args>
      9c:	34102573          	csrr	a0,mepc

000000a0 <skip_init_args>:
      a0:	21d000ef          	jal	abc <handle_exception>
      a4:	341022f3          	csrr	t0,mepc
      a8:	00428293          	addi	t0,t0,4
      ac:	34129073          	csrw	mepc,t0
      b0:	0180006f          	j	c8 <restore>

000000b4 <external_irq>:
      b4:	800002b7          	lui	t0,0x80000
      b8:	fff28293          	addi	t0,t0,-1 # 7fffffff <_stack_end+0x7fec5017>
      bc:	34202373          	csrr	t1,mcause
      c0:	0062f533          	and	a0,t0,t1
      c4:	519010ef          	jal	1ddc <handle_interrupt>

000000c8 <restore>:
      c8:	00012083          	lw	ra,0(sp)
      cc:	00812183          	lw	gp,8(sp)
      d0:	00c12203          	lw	tp,12(sp)
      d4:	01012283          	lw	t0,16(sp)
      d8:	01412303          	lw	t1,20(sp)
      dc:	01812383          	lw	t2,24(sp)
      e0:	01c12403          	lw	s0,28(sp)
      e4:	02012483          	lw	s1,32(sp)
      e8:	02412503          	lw	a0,36(sp)
      ec:	02812583          	lw	a1,40(sp)
      f0:	02c12603          	lw	a2,44(sp)
      f4:	03012683          	lw	a3,48(sp)
      f8:	03412703          	lw	a4,52(sp)
      fc:	03812783          	lw	a5,56(sp)
     100:	03c12803          	lw	a6,60(sp)
     104:	04012883          	lw	a7,64(sp)
     108:	04412903          	lw	s2,68(sp)
     10c:	04812983          	lw	s3,72(sp)
     110:	04c12a03          	lw	s4,76(sp)
     114:	05012a83          	lw	s5,80(sp)
     118:	05412b03          	lw	s6,84(sp)
     11c:	05812b83          	lw	s7,88(sp)
     120:	05c12c03          	lw	s8,92(sp)
     124:	06012c83          	lw	s9,96(sp)
     128:	06412d03          	lw	s10,100(sp)
     12c:	06812d83          	lw	s11,104(sp)
     130:	06c12e03          	lw	t3,108(sp)
     134:	07012e83          	lw	t4,112(sp)
     138:	07412f03          	lw	t5,116(sp)
     13c:	07812f83          	lw	t6,120(sp)
     140:	08010113          	addi	sp,sp,128
     144:	30200073          	mret

00000148 <_start>:
     148:	0013b117          	auipc	sp,0x13b
     14c:	ea010113          	addi	sp,sp,-352 # 13afe8 <_stack_end>
     150:	00029197          	auipc	gp,0x29
     154:	9b018193          	addi	gp,gp,-1616 # 28b00 <__global_pointer>
     158:	00003517          	auipc	a0,0x3
     15c:	91450513          	addi	a0,a0,-1772 # 2a6c <welcome_msg>
     160:	00400893          	li	a7,4
     164:	00000073          	ecall
     168:	4e9010ef          	jal	1e50 <main>

0000016c <loop>:
     16c:	0000006f          	j	16c <loop>

00000170 <enable_interrupt>:
     170:	30496073          	csrsi	mie,18
     174:	3001e073          	csrsi	mstatus,3
     178:	00008067          	ret

0000017c <absolute>:
     17c:	ff010113          	addi	sp,sp,-16
     180:	00812423          	sw	s0,8(sp)
     184:	00912223          	sw	s1,4(sp)
     188:	00058413          	mv	s0,a1
     18c:	00050493          	mv	s1,a0
     190:	00048513          	mv	a0,s1
     194:	00040593          	mv	a1,s0
     198:	00000613          	li	a2,0
     19c:	00000693          	li	a3,0
     1a0:	00112623          	sw	ra,12(sp)
     1a4:	6e8020ef          	jal	288c <__ltdf2>
     1a8:	00055663          	bgez	a0,1b4 <absolute+0x38>
     1ac:	800007b7          	lui	a5,0x80000
     1b0:	0087c433          	xor	s0,a5,s0
     1b4:	00c12083          	lw	ra,12(sp)
     1b8:	00040593          	mv	a1,s0
     1bc:	00812403          	lw	s0,8(sp)
     1c0:	00048513          	mv	a0,s1
     1c4:	00412483          	lw	s1,4(sp)
     1c8:	01010113          	addi	sp,sp,16
     1cc:	00008067          	ret

000001d0 <custom_exp>:
     1d0:	fd010113          	addi	sp,sp,-48
     1d4:	0003b7b7          	lui	a5,0x3b
     1d8:	03212023          	sw	s2,32(sp)
     1dc:	01612823          	sw	s6,16(sp)
     1e0:	f247a903          	lw	s2,-220(a5) # 3af24 <loadingBool+0x8>
     1e4:	f207ab03          	lw	s6,-224(a5)
     1e8:	02812423          	sw	s0,40(sp)
     1ec:	02912223          	sw	s1,36(sp)
     1f0:	01312e23          	sw	s3,28(sp)
     1f4:	01412c23          	sw	s4,24(sp)
     1f8:	01512a23          	sw	s5,20(sp)
     1fc:	01712623          	sw	s7,12(sp)
     200:	02112623          	sw	ra,44(sp)
     204:	00050a13          	mv	s4,a0
     208:	00058993          	mv	s3,a1
     20c:	00100b93          	li	s7,1
     210:	000b0493          	mv	s1,s6
     214:	00090413          	mv	s0,s2
     218:	01500a93          	li	s5,21
     21c:	000b8513          	mv	a0,s7
     220:	550020ef          	jal	2770 <__floatsidf>
     224:	00050613          	mv	a2,a0
     228:	00058693          	mv	a3,a1
     22c:	000a0513          	mv	a0,s4
     230:	00098593          	mv	a1,s3
     234:	0b0020ef          	jal	22e4 <__divdf3>
     238:	00050613          	mv	a2,a0
     23c:	00058693          	mv	a3,a1
     240:	00048513          	mv	a0,s1
     244:	00040593          	mv	a1,s0
     248:	6ac020ef          	jal	28f4 <__muldf3>
     24c:	00050493          	mv	s1,a0
     250:	00058413          	mv	s0,a1
     254:	000b0513          	mv	a0,s6
     258:	00090593          	mv	a1,s2
     25c:	00048613          	mv	a2,s1
     260:	00040693          	mv	a3,s0
     264:	571010ef          	jal	1fd4 <__adddf3>
     268:	001b8b93          	addi	s7,s7,1
     26c:	00050b13          	mv	s6,a0
     270:	00058913          	mv	s2,a1
     274:	fb5b94e3          	bne	s7,s5,21c <custom_exp+0x4c>
     278:	02c12083          	lw	ra,44(sp)
     27c:	02812403          	lw	s0,40(sp)
     280:	02412483          	lw	s1,36(sp)
     284:	02012903          	lw	s2,32(sp)
     288:	01c12983          	lw	s3,28(sp)
     28c:	01812a03          	lw	s4,24(sp)
     290:	01412a83          	lw	s5,20(sp)
     294:	01012b03          	lw	s6,16(sp)
     298:	00c12b83          	lw	s7,12(sp)
     29c:	03010113          	addi	sp,sp,48
     2a0:	00008067          	ret

000002a4 <custom_ln>:
     2a4:	fb010113          	addi	sp,sp,-80
     2a8:	00000613          	li	a2,0
     2ac:	00000693          	li	a3,0
     2b0:	04912223          	sw	s1,68(sp)
     2b4:	05212023          	sw	s2,64(sp)
     2b8:	04112623          	sw	ra,76(sp)
     2bc:	03312e23          	sw	s3,60(sp)
     2c0:	00050913          	mv	s2,a0
     2c4:	00a12423          	sw	a0,8(sp)
     2c8:	00058493          	mv	s1,a1
     2cc:	00b12623          	sw	a1,12(sp)
     2d0:	554020ef          	jal	2824 <__ledf2>
     2d4:	1ca05463          	blez	a0,49c <custom_ln+0x1f8>
     2d8:	04812423          	sw	s0,72(sp)
     2dc:	0003b437          	lui	s0,0x3b
     2e0:	f2042603          	lw	a2,-224(s0) # 3af20 <loadingBool+0x4>
     2e4:	f2442683          	lw	a3,-220(s0)
     2e8:	00090513          	mv	a0,s2
     2ec:	00048593          	mv	a1,s1
     2f0:	03412c23          	sw	s4,56(sp)
     2f4:	03512a23          	sw	s5,52(sp)
     2f8:	03612823          	sw	s6,48(sp)
     2fc:	03712623          	sw	s7,44(sp)
     300:	03812423          	sw	s8,40(sp)
     304:	03912223          	sw	s9,36(sp)
     308:	03a12023          	sw	s10,32(sp)
     30c:	01b12e23          	sw	s11,28(sp)
     310:	4bd010ef          	jal	1fcc <__subdf3>
     314:	f2042b03          	lw	s6,-224(s0)
     318:	f2442a83          	lw	s5,-220(s0)
     31c:	00050993          	mv	s3,a0
     320:	00058913          	mv	s2,a1
     324:	01400b93          	li	s7,20
     328:	01500a13          	li	s4,21
     32c:	000b0c13          	mv	s8,s6
     330:	000a8d93          	mv	s11,s5
     334:	000b0493          	mv	s1,s6
     338:	000a8413          	mv	s0,s5
     33c:	00100d13          	li	s10,1
     340:	000d0513          	mv	a0,s10
     344:	42c020ef          	jal	2770 <__floatsidf>
     348:	00050613          	mv	a2,a0
     34c:	00058693          	mv	a3,a1
     350:	00098513          	mv	a0,s3
     354:	00090593          	mv	a1,s2
     358:	78d010ef          	jal	22e4 <__divdf3>
     35c:	00050613          	mv	a2,a0
     360:	00058693          	mv	a3,a1
     364:	00048513          	mv	a0,s1
     368:	00040593          	mv	a1,s0
     36c:	588020ef          	jal	28f4 <__muldf3>
     370:	00050493          	mv	s1,a0
     374:	00058413          	mv	s0,a1
     378:	000c0513          	mv	a0,s8
     37c:	000d8593          	mv	a1,s11
     380:	00048613          	mv	a2,s1
     384:	00040693          	mv	a3,s0
     388:	44d010ef          	jal	1fd4 <__adddf3>
     38c:	001d0d13          	addi	s10,s10,1
     390:	00050c13          	mv	s8,a0
     394:	00058d93          	mv	s11,a1
     398:	fb4d14e3          	bne	s10,s4,340 <custom_ln+0x9c>
     39c:	00812603          	lw	a2,8(sp)
     3a0:	00c12683          	lw	a3,12(sp)
     3a4:	000b0c93          	mv	s9,s6
     3a8:	000a8c13          	mv	s8,s5
     3ac:	421010ef          	jal	1fcc <__subdf3>
     3b0:	00050d93          	mv	s11,a0
     3b4:	00b12223          	sw	a1,4(sp)
     3b8:	000b0493          	mv	s1,s6
     3bc:	000a8413          	mv	s0,s5
     3c0:	00100d13          	li	s10,1
     3c4:	000d0513          	mv	a0,s10
     3c8:	3a8020ef          	jal	2770 <__floatsidf>
     3cc:	00050613          	mv	a2,a0
     3d0:	00058693          	mv	a3,a1
     3d4:	00098513          	mv	a0,s3
     3d8:	00090593          	mv	a1,s2
     3dc:	709010ef          	jal	22e4 <__divdf3>
     3e0:	00050613          	mv	a2,a0
     3e4:	00058693          	mv	a3,a1
     3e8:	00048513          	mv	a0,s1
     3ec:	00040593          	mv	a1,s0
     3f0:	504020ef          	jal	28f4 <__muldf3>
     3f4:	00050493          	mv	s1,a0
     3f8:	00058413          	mv	s0,a1
     3fc:	000c8513          	mv	a0,s9
     400:	000c0593          	mv	a1,s8
     404:	00048613          	mv	a2,s1
     408:	00040693          	mv	a3,s0
     40c:	3c9010ef          	jal	1fd4 <__adddf3>
     410:	001d0d13          	addi	s10,s10,1
     414:	00050c93          	mv	s9,a0
     418:	00058c13          	mv	s8,a1
     41c:	fb4d14e3          	bne	s10,s4,3c4 <custom_ln+0x120>
     420:	00412583          	lw	a1,4(sp)
     424:	000c8613          	mv	a2,s9
     428:	000c0693          	mv	a3,s8
     42c:	000d8513          	mv	a0,s11
     430:	6b5010ef          	jal	22e4 <__divdf3>
     434:	00050613          	mv	a2,a0
     438:	00058693          	mv	a3,a1
     43c:	00098513          	mv	a0,s3
     440:	00090593          	mv	a1,s2
     444:	389010ef          	jal	1fcc <__subdf3>
     448:	fffb8b93          	addi	s7,s7,-1
     44c:	00050993          	mv	s3,a0
     450:	00058913          	mv	s2,a1
     454:	ec0b9ce3          	bnez	s7,32c <custom_ln+0x88>
     458:	04812403          	lw	s0,72(sp)
     45c:	04c12083          	lw	ra,76(sp)
     460:	03812a03          	lw	s4,56(sp)
     464:	03412a83          	lw	s5,52(sp)
     468:	03012b03          	lw	s6,48(sp)
     46c:	02c12b83          	lw	s7,44(sp)
     470:	02812c03          	lw	s8,40(sp)
     474:	02412c83          	lw	s9,36(sp)
     478:	02012d03          	lw	s10,32(sp)
     47c:	01c12d83          	lw	s11,28(sp)
     480:	04412483          	lw	s1,68(sp)
     484:	00098513          	mv	a0,s3
     488:	00090593          	mv	a1,s2
     48c:	03c12983          	lw	s3,60(sp)
     490:	04012903          	lw	s2,64(sp)
     494:	05010113          	addi	sp,sp,80
     498:	00008067          	ret
     49c:	0003b7b7          	lui	a5,0x3b
     4a0:	f287a983          	lw	s3,-216(a5) # 3af28 <loadingBool+0xc>
     4a4:	f2c7a903          	lw	s2,-212(a5)
     4a8:	04c12083          	lw	ra,76(sp)
     4ac:	04412483          	lw	s1,68(sp)
     4b0:	00098513          	mv	a0,s3
     4b4:	00090593          	mv	a1,s2
     4b8:	03c12983          	lw	s3,60(sp)
     4bc:	04012903          	lw	s2,64(sp)
     4c0:	05010113          	addi	sp,sp,80
     4c4:	00008067          	ret

000004c8 <custom_pow>:
     4c8:	fa010113          	addi	sp,sp,-96
     4cc:	00060713          	mv	a4,a2
     4d0:	00068793          	mv	a5,a3
     4d4:	00000613          	li	a2,0
     4d8:	00000693          	li	a3,0
     4dc:	04812c23          	sw	s0,88(sp)
     4e0:	04912a23          	sw	s1,84(sp)
     4e4:	04112e23          	sw	ra,92(sp)
     4e8:	05212823          	sw	s2,80(sp)
     4ec:	05612023          	sw	s6,64(sp)
     4f0:	00a12623          	sw	a0,12(sp)
     4f4:	00b12823          	sw	a1,16(sp)
     4f8:	00070493          	mv	s1,a4
     4fc:	00e12a23          	sw	a4,20(sp)
     500:	00078413          	mv	s0,a5
     504:	00f12c23          	sw	a5,24(sp)
     508:	08c020ef          	jal	2594 <__eqdf2>
     50c:	02051663          	bnez	a0,538 <custom_pow+0x70>
     510:	00048513          	mv	a0,s1
     514:	00040593          	mv	a1,s0
     518:	00000613          	li	a2,0
     51c:	00000693          	li	a3,0
     520:	074020ef          	jal	2594 <__eqdf2>
     524:	2a051263          	bnez	a0,7c8 <custom_pow+0x300>
     528:	0003b7b7          	lui	a5,0x3b
     52c:	f207ab03          	lw	s6,-224(a5) # 3af20 <loadingBool+0x4>
     530:	f247a903          	lw	s2,-220(a5)
     534:	2700006f          	j	7a4 <custom_pow+0x2dc>
     538:	00c12503          	lw	a0,12(sp)
     53c:	01012583          	lw	a1,16(sp)
     540:	00000613          	li	a2,0
     544:	00000693          	li	a3,0
     548:	05312623          	sw	s3,76(sp)
     54c:	05412423          	sw	s4,72(sp)
     550:	05512223          	sw	s5,68(sp)
     554:	03712e23          	sw	s7,60(sp)
     558:	334020ef          	jal	288c <__ltdf2>
     55c:	26054c63          	bltz	a0,7d4 <custom_pow+0x30c>
     560:	00c12903          	lw	s2,12(sp)
     564:	01012483          	lw	s1,16(sp)
     568:	00000613          	li	a2,0
     56c:	00090513          	mv	a0,s2
     570:	00048593          	mv	a1,s1
     574:	00000693          	li	a3,0
     578:	03812c23          	sw	s8,56(sp)
     57c:	03912a23          	sw	s9,52(sp)
     580:	03a12823          	sw	s10,48(sp)
     584:	03b12623          	sw	s11,44(sp)
     588:	29c020ef          	jal	2824 <__ledf2>
     58c:	28a05663          	blez	a0,818 <__heap_size+0x18>
     590:	0003b437          	lui	s0,0x3b
     594:	f2042603          	lw	a2,-224(s0) # 3af20 <loadingBool+0x4>
     598:	f2442683          	lw	a3,-220(s0)
     59c:	00090513          	mv	a0,s2
     5a0:	00048593          	mv	a1,s1
     5a4:	00812e23          	sw	s0,28(sp)
     5a8:	225010ef          	jal	1fcc <__subdf3>
     5ac:	f2042b03          	lw	s6,-224(s0)
     5b0:	f2442a83          	lw	s5,-220(s0)
     5b4:	00050993          	mv	s3,a0
     5b8:	00058913          	mv	s2,a1
     5bc:	01400c93          	li	s9,20
     5c0:	01500a13          	li	s4,21
     5c4:	000b0d13          	mv	s10,s6
     5c8:	000a8c13          	mv	s8,s5
     5cc:	000b0493          	mv	s1,s6
     5d0:	000a8413          	mv	s0,s5
     5d4:	00100b93          	li	s7,1
     5d8:	000b8513          	mv	a0,s7
     5dc:	194020ef          	jal	2770 <__floatsidf>
     5e0:	00050613          	mv	a2,a0
     5e4:	00058693          	mv	a3,a1
     5e8:	00098513          	mv	a0,s3
     5ec:	00090593          	mv	a1,s2
     5f0:	4f5010ef          	jal	22e4 <__divdf3>
     5f4:	00050613          	mv	a2,a0
     5f8:	00058693          	mv	a3,a1
     5fc:	00048513          	mv	a0,s1
     600:	00040593          	mv	a1,s0
     604:	2f0020ef          	jal	28f4 <__muldf3>
     608:	00050613          	mv	a2,a0
     60c:	00058693          	mv	a3,a1
     610:	00050493          	mv	s1,a0
     614:	00058413          	mv	s0,a1
     618:	000d0513          	mv	a0,s10
     61c:	000c0593          	mv	a1,s8
     620:	1b5010ef          	jal	1fd4 <__adddf3>
     624:	001b8b93          	addi	s7,s7,1
     628:	00050d13          	mv	s10,a0
     62c:	00058c13          	mv	s8,a1
     630:	fb4b94e3          	bne	s7,s4,5d8 <custom_pow+0x110>
     634:	00c12603          	lw	a2,12(sp)
     638:	01012683          	lw	a3,16(sp)
     63c:	000b0d93          	mv	s11,s6
     640:	000a8d13          	mv	s10,s5
     644:	189010ef          	jal	1fcc <__subdf3>
     648:	00050c13          	mv	s8,a0
     64c:	00b12423          	sw	a1,8(sp)
     650:	000b0493          	mv	s1,s6
     654:	000a8413          	mv	s0,s5
     658:	00100b93          	li	s7,1
     65c:	000b8513          	mv	a0,s7
     660:	110020ef          	jal	2770 <__floatsidf>
     664:	00050613          	mv	a2,a0
     668:	00058693          	mv	a3,a1
     66c:	00098513          	mv	a0,s3
     670:	00090593          	mv	a1,s2
     674:	471010ef          	jal	22e4 <__divdf3>
     678:	00050613          	mv	a2,a0
     67c:	00058693          	mv	a3,a1
     680:	00048513          	mv	a0,s1
     684:	00040593          	mv	a1,s0
     688:	26c020ef          	jal	28f4 <__muldf3>
     68c:	00050613          	mv	a2,a0
     690:	00058693          	mv	a3,a1
     694:	00050493          	mv	s1,a0
     698:	00058413          	mv	s0,a1
     69c:	000d8513          	mv	a0,s11
     6a0:	000d0593          	mv	a1,s10
     6a4:	131010ef          	jal	1fd4 <__adddf3>
     6a8:	001b8b93          	addi	s7,s7,1
     6ac:	00050d93          	mv	s11,a0
     6b0:	00058d13          	mv	s10,a1
     6b4:	fb4b94e3          	bne	s7,s4,65c <custom_pow+0x194>
     6b8:	00058693          	mv	a3,a1
     6bc:	00812583          	lw	a1,8(sp)
     6c0:	00050613          	mv	a2,a0
     6c4:	000c0513          	mv	a0,s8
     6c8:	41d010ef          	jal	22e4 <__divdf3>
     6cc:	00050613          	mv	a2,a0
     6d0:	00058693          	mv	a3,a1
     6d4:	00098513          	mv	a0,s3
     6d8:	00090593          	mv	a1,s2
     6dc:	0f1010ef          	jal	1fcc <__subdf3>
     6e0:	fffc8c93          	addi	s9,s9,-1
     6e4:	00050993          	mv	s3,a0
     6e8:	00058913          	mv	s2,a1
     6ec:	ec0c9ce3          	bnez	s9,5c4 <custom_pow+0xfc>
     6f0:	03812c03          	lw	s8,56(sp)
     6f4:	03412c83          	lw	s9,52(sp)
     6f8:	03012d03          	lw	s10,48(sp)
     6fc:	02c12d83          	lw	s11,44(sp)
     700:	01412503          	lw	a0,20(sp)
     704:	01812583          	lw	a1,24(sp)
     708:	00098613          	mv	a2,s3
     70c:	00090693          	mv	a3,s2
     710:	1e4020ef          	jal	28f4 <__muldf3>
     714:	01c12783          	lw	a5,28(sp)
     718:	00050a13          	mv	s4,a0
     71c:	00058993          	mv	s3,a1
     720:	f207ab03          	lw	s6,-224(a5)
     724:	f247a903          	lw	s2,-220(a5)
     728:	00100b93          	li	s7,1
     72c:	000b0493          	mv	s1,s6
     730:	00090413          	mv	s0,s2
     734:	01500a93          	li	s5,21
     738:	000b8513          	mv	a0,s7
     73c:	034020ef          	jal	2770 <__floatsidf>
     740:	00050613          	mv	a2,a0
     744:	00058693          	mv	a3,a1
     748:	000a0513          	mv	a0,s4
     74c:	00098593          	mv	a1,s3
     750:	395010ef          	jal	22e4 <__divdf3>
     754:	00050613          	mv	a2,a0
     758:	00058693          	mv	a3,a1
     75c:	00048513          	mv	a0,s1
     760:	00040593          	mv	a1,s0
     764:	190020ef          	jal	28f4 <__muldf3>
     768:	00050613          	mv	a2,a0
     76c:	00058693          	mv	a3,a1
     770:	00050493          	mv	s1,a0
     774:	00058413          	mv	s0,a1
     778:	000b0513          	mv	a0,s6
     77c:	00090593          	mv	a1,s2
     780:	055010ef          	jal	1fd4 <__adddf3>
     784:	001b8b93          	addi	s7,s7,1
     788:	00050b13          	mv	s6,a0
     78c:	00058913          	mv	s2,a1
     790:	fb5b94e3          	bne	s7,s5,738 <custom_pow+0x270>
     794:	04c12983          	lw	s3,76(sp)
     798:	04812a03          	lw	s4,72(sp)
     79c:	04412a83          	lw	s5,68(sp)
     7a0:	03c12b83          	lw	s7,60(sp)
     7a4:	05c12083          	lw	ra,92(sp)
     7a8:	05812403          	lw	s0,88(sp)
     7ac:	05412483          	lw	s1,84(sp)
     7b0:	000b0513          	mv	a0,s6
     7b4:	00090593          	mv	a1,s2
     7b8:	04012b03          	lw	s6,64(sp)
     7bc:	05012903          	lw	s2,80(sp)
     7c0:	06010113          	addi	sp,sp,96
     7c4:	00008067          	ret
     7c8:	00000b13          	li	s6,0
     7cc:	00000913          	li	s2,0
     7d0:	fd5ff06f          	j	7a4 <custom_pow+0x2dc>
     7d4:	00040593          	mv	a1,s0
     7d8:	00048513          	mv	a0,s1
     7dc:	6a1010ef          	jal	267c <__fixdfsi>
     7e0:	791010ef          	jal	2770 <__floatsidf>
     7e4:	00048613          	mv	a2,s1
     7e8:	00040693          	mv	a3,s0
     7ec:	5a9010ef          	jal	2594 <__eqdf2>
     7f0:	0003b7b7          	lui	a5,0x3b
     7f4:	00051c63          	bnez	a0,80c <__heap_size+0xc>
     7f8:	f287a983          	lw	s3,-216(a5) # 3af28 <loadingBool+0xc>
     7fc:	f2c7a903          	lw	s2,-212(a5)
     800:	0003b7b7          	lui	a5,0x3b
     804:	00f12e23          	sw	a5,28(sp)
     808:	ef9ff06f          	j	700 <custom_pow+0x238>
     80c:	f287ab03          	lw	s6,-216(a5) # 3af28 <loadingBool+0xc>
     810:	f2c7a903          	lw	s2,-212(a5)
     814:	f81ff06f          	j	794 <custom_pow+0x2cc>
     818:	0003b7b7          	lui	a5,0x3b
     81c:	f287a983          	lw	s3,-216(a5) # 3af28 <loadingBool+0xc>
     820:	f2c7a903          	lw	s2,-212(a5)
     824:	0003b7b7          	lui	a5,0x3b
     828:	03812c03          	lw	s8,56(sp)
     82c:	03412c83          	lw	s9,52(sp)
     830:	03012d03          	lw	s10,48(sp)
     834:	02c12d83          	lw	s11,44(sp)
     838:	00f12e23          	sw	a5,28(sp)
     83c:	ec5ff06f          	j	700 <custom_pow+0x238>

00000840 <my_min>:
     840:	00050793          	mv	a5,a0
     844:	00058513          	mv	a0,a1
     848:	00b7d463          	bge	a5,a1,850 <my_min+0x10>
     84c:	00078513          	mv	a0,a5
     850:	00008067          	ret

00000854 <my_max>:
     854:	00050793          	mv	a5,a0
     858:	00058513          	mv	a0,a1
     85c:	00f5d463          	bge	a1,a5,864 <my_max+0x10>
     860:	00078513          	mv	a0,a5
     864:	00008067          	ret

00000868 <custom_round>:
     868:	ff010113          	addi	sp,sp,-16
     86c:	00000613          	li	a2,0
     870:	00000693          	li	a3,0
     874:	00812423          	sw	s0,8(sp)
     878:	00912223          	sw	s1,4(sp)
     87c:	00112623          	sw	ra,12(sp)
     880:	00050493          	mv	s1,a0
     884:	00058413          	mv	s0,a1
     888:	729010ef          	jal	27b0 <__gedf2>
     88c:	0003b7b7          	lui	a5,0x3b
     890:	f307a603          	lw	a2,-208(a5) # 3af30 <loadingBool+0x14>
     894:	f347a683          	lw	a3,-204(a5)
     898:	02054e63          	bltz	a0,8d4 <custom_round+0x6c>
     89c:	00048513          	mv	a0,s1
     8a0:	00040593          	mv	a1,s0
     8a4:	730010ef          	jal	1fd4 <__adddf3>
     8a8:	529010ef          	jal	25d0 <__fixdfdi>
     8ac:	629010ef          	jal	26d4 <__floatdidf>
     8b0:	00c12083          	lw	ra,12(sp)
     8b4:	00812403          	lw	s0,8(sp)
     8b8:	00050713          	mv	a4,a0
     8bc:	00058793          	mv	a5,a1
     8c0:	00412483          	lw	s1,4(sp)
     8c4:	00070513          	mv	a0,a4
     8c8:	00078593          	mv	a1,a5
     8cc:	01010113          	addi	sp,sp,16
     8d0:	00008067          	ret
     8d4:	00048513          	mv	a0,s1
     8d8:	00040593          	mv	a1,s0
     8dc:	6f0010ef          	jal	1fcc <__subdf3>
     8e0:	4f1010ef          	jal	25d0 <__fixdfdi>
     8e4:	5f1010ef          	jal	26d4 <__floatdidf>
     8e8:	00c12083          	lw	ra,12(sp)
     8ec:	00812403          	lw	s0,8(sp)
     8f0:	00050713          	mv	a4,a0
     8f4:	00058793          	mv	a5,a1
     8f8:	00412483          	lw	s1,4(sp)
     8fc:	00070513          	mv	a0,a4
     900:	00078593          	mv	a1,a5
     904:	01010113          	addi	sp,sp,16
     908:	00008067          	ret

0000090c <memset>:
     90c:	ff010113          	addi	sp,sp,-16
     910:	00812423          	sw	s0,8(sp)
     914:	00112623          	sw	ra,12(sp)
     918:	00050413          	mv	s0,a0
     91c:	00060663          	beqz	a2,928 <memset+0x1c>
     920:	0ff5f593          	zext.b	a1,a1
     924:	fe9ff0ef          	jal	90c <memset>
     928:	00c12083          	lw	ra,12(sp)
     92c:	00040513          	mv	a0,s0
     930:	00812403          	lw	s0,8(sp)
     934:	01010113          	addi	sp,sp,16
     938:	00008067          	ret

0000093c <display_string>:
     93c:	00400893          	li	a7,4
     940:	00000073          	ecall
     944:	00a00513          	li	a0,10
     948:	00b00893          	li	a7,11
     94c:	00000073          	ecall
     950:	00008067          	ret

00000954 <printc>:
     954:	04000737          	lui	a4,0x4000
     958:	04470713          	addi	a4,a4,68 # 4000044 <_stack_end+0x3ec505c>
     95c:	000106b7          	lui	a3,0x10
     960:	00072783          	lw	a5,0(a4)
     964:	fed7eee3          	bltu	a5,a3,960 <printc+0xc>
     968:	040007b7          	lui	a5,0x4000
     96c:	04a7a023          	sw	a0,64(a5) # 4000040 <_stack_end+0x3ec5058>
     970:	00008067          	ret

00000974 <print>:
     974:	00054603          	lbu	a2,0(a0)
     978:	02060863          	beqz	a2,9a8 <print+0x34>
     97c:	04000737          	lui	a4,0x4000
     980:	040005b7          	lui	a1,0x4000
     984:	04470713          	addi	a4,a4,68 # 4000044 <_stack_end+0x3ec505c>
     988:	000106b7          	lui	a3,0x10
     98c:	04058593          	addi	a1,a1,64 # 4000040 <_stack_end+0x3ec5058>
     990:	00072783          	lw	a5,0(a4)
     994:	fed7eee3          	bltu	a5,a3,990 <print+0x1c>
     998:	00c5a023          	sw	a2,0(a1)
     99c:	00154603          	lbu	a2,1(a0)
     9a0:	00150513          	addi	a0,a0,1
     9a4:	fe0616e3          	bnez	a2,990 <print+0x1c>
     9a8:	00008067          	ret

000009ac <print_dec>:
     9ac:	3b9ad737          	lui	a4,0x3b9ad
     9b0:	040006b7          	lui	a3,0x4000
     9b4:	04000337          	lui	t1,0x4000
     9b8:	00a00593          	li	a1,10
     9bc:	00000793          	li	a5,0
     9c0:	a0070713          	addi	a4,a4,-1536 # 3b9aca00 <_stack_end+0x3b871a18>
     9c4:	04468693          	addi	a3,a3,68 # 4000044 <_stack_end+0x3ec505c>
     9c8:	00010637          	lui	a2,0x10
     9cc:	04030313          	addi	t1,t1,64 # 4000040 <_stack_end+0x3ec5058>
     9d0:	00a00893          	li	a7,10
     9d4:	04e57063          	bgeu	a0,a4,a14 <print_dec+0x68>
     9d8:	02079e63          	bnez	a5,a14 <print_dec+0x68>
     9dc:	fff58593          	addi	a1,a1,-1
     9e0:	02e57533          	remu	a0,a0,a4
     9e4:	03175733          	divu	a4,a4,a7
     9e8:	fe0596e3          	bnez	a1,9d4 <print_dec+0x28>
     9ec:	02079263          	bnez	a5,a10 <print_dec+0x64>
     9f0:	04000737          	lui	a4,0x4000
     9f4:	04470713          	addi	a4,a4,68 # 4000044 <_stack_end+0x3ec505c>
     9f8:	000106b7          	lui	a3,0x10
     9fc:	00072783          	lw	a5,0(a4)
     a00:	fed7eee3          	bltu	a5,a3,9fc <print_dec+0x50>
     a04:	040007b7          	lui	a5,0x4000
     a08:	03000713          	li	a4,48
     a0c:	04e7a023          	sw	a4,64(a5) # 4000040 <_stack_end+0x3ec5058>
     a10:	00008067          	ret
     a14:	02e55833          	divu	a6,a0,a4
     a18:	03080813          	addi	a6,a6,48
     a1c:	0ff87813          	zext.b	a6,a6
     a20:	0006a783          	lw	a5,0(a3) # 10000 <LoadingOutput_bmp+0xd500>
     a24:	fec7eee3          	bltu	a5,a2,a20 <print_dec+0x74>
     a28:	01032023          	sw	a6,0(t1)
     a2c:	00100793          	li	a5,1
     a30:	fadff06f          	j	9dc <print_dec+0x30>

00000a34 <print_hex32>:
     a34:	04000737          	lui	a4,0x4000
     a38:	04470713          	addi	a4,a4,68 # 4000044 <_stack_end+0x3ec505c>
     a3c:	000106b7          	lui	a3,0x10
     a40:	00072783          	lw	a5,0(a4)
     a44:	fed7eee3          	bltu	a5,a3,a40 <print_hex32+0xc>
     a48:	03000693          	li	a3,48
     a4c:	040007b7          	lui	a5,0x4000
     a50:	04000737          	lui	a4,0x4000
     a54:	04d7a023          	sw	a3,64(a5) # 4000040 <_stack_end+0x3ec5058>
     a58:	04470713          	addi	a4,a4,68 # 4000044 <_stack_end+0x3ec505c>
     a5c:	000106b7          	lui	a3,0x10
     a60:	00072783          	lw	a5,0(a4)
     a64:	fed7eee3          	bltu	a5,a3,a60 <print_hex32+0x2c>
     a68:	04000837          	lui	a6,0x4000
     a6c:	04080813          	addi	a6,a6,64 # 4000040 <_stack_end+0x3ec5058>
     a70:	04000737          	lui	a4,0x4000
     a74:	07800793          	li	a5,120
     a78:	00f82023          	sw	a5,0(a6)
     a7c:	01c00613          	li	a2,28
     a80:	00900313          	li	t1,9
     a84:	04470713          	addi	a4,a4,68 # 4000044 <_stack_end+0x3ec505c>
     a88:	000106b7          	lui	a3,0x10
     a8c:	ffc00893          	li	a7,-4
     a90:	00c557b3          	srl	a5,a0,a2
     a94:	00f7f793          	andi	a5,a5,15
     a98:	03778593          	addi	a1,a5,55
     a9c:	00f36463          	bltu	t1,a5,aa4 <print_hex32+0x70>
     aa0:	03078593          	addi	a1,a5,48
     aa4:	00072783          	lw	a5,0(a4)
     aa8:	fed7eee3          	bltu	a5,a3,aa4 <print_hex32+0x70>
     aac:	00b82023          	sw	a1,0(a6)
     ab0:	ffc60613          	addi	a2,a2,-4 # fffc <LoadingOutput_bmp+0xd4fc>
     ab4:	fd161ee3          	bne	a2,a7,a90 <print_hex32+0x5c>
     ab8:	00008067          	ret

00000abc <handle_exception>:
     abc:	00200793          	li	a5,2
     ac0:	18f80863          	beq	a6,a5,c50 <handle_exception+0x194>
     ac4:	00b00793          	li	a5,11
     ac8:	12f80063          	beq	a6,a5,be8 <handle_exception+0x12c>
     acc:	04000737          	lui	a4,0x4000
     ad0:	14081463          	bnez	a6,c18 <handle_exception+0x15c>
     ad4:	04000837          	lui	a6,0x4000
     ad8:	0003b637          	lui	a2,0x3b
     adc:	f5060613          	addi	a2,a2,-176 # 3af50 <loadingBool+0x34>
     ae0:	00a00593          	li	a1,10
     ae4:	04470713          	addi	a4,a4,68 # 4000044 <_stack_end+0x3ec505c>
     ae8:	000106b7          	lui	a3,0x10
     aec:	04080813          	addi	a6,a6,64 # 4000040 <_stack_end+0x3ec5058>
     af0:	00072783          	lw	a5,0(a4)
     af4:	fed7eee3          	bltu	a5,a3,af0 <handle_exception+0x34>
     af8:	00b82023          	sw	a1,0(a6)
     afc:	00164583          	lbu	a1,1(a2)
     b00:	00160613          	addi	a2,a2,1
     b04:	fe0596e3          	bnez	a1,af0 <handle_exception+0x34>
     b08:	04000737          	lui	a4,0x4000
     b0c:	04000837          	lui	a6,0x4000
     b10:	0003b637          	lui	a2,0x3b
     b14:	fc460613          	addi	a2,a2,-60 # 3afc4 <loadingBool+0xa8>
     b18:	04500593          	li	a1,69
     b1c:	04470713          	addi	a4,a4,68 # 4000044 <_stack_end+0x3ec505c>
     b20:	000106b7          	lui	a3,0x10
     b24:	04080813          	addi	a6,a6,64 # 4000040 <_stack_end+0x3ec5058>
     b28:	00072783          	lw	a5,0(a4)
     b2c:	fed7eee3          	bltu	a5,a3,b28 <handle_exception+0x6c>
     b30:	00b82023          	sw	a1,0(a6)
     b34:	00164583          	lbu	a1,1(a2)
     b38:	00160613          	addi	a2,a2,1
     b3c:	fe0596e3          	bnez	a1,b28 <handle_exception+0x6c>
     b40:	04000737          	lui	a4,0x4000
     b44:	04470713          	addi	a4,a4,68 # 4000044 <_stack_end+0x3ec505c>
     b48:	000106b7          	lui	a3,0x10
     b4c:	00072783          	lw	a5,0(a4)
     b50:	fed7eee3          	bltu	a5,a3,b4c <handle_exception+0x90>
     b54:	03000693          	li	a3,48
     b58:	040007b7          	lui	a5,0x4000
     b5c:	04000737          	lui	a4,0x4000
     b60:	04d7a023          	sw	a3,64(a5) # 4000040 <_stack_end+0x3ec5058>
     b64:	04470713          	addi	a4,a4,68 # 4000044 <_stack_end+0x3ec505c>
     b68:	000106b7          	lui	a3,0x10
     b6c:	00072783          	lw	a5,0(a4)
     b70:	fed7eee3          	bltu	a5,a3,b6c <handle_exception+0xb0>
     b74:	04000837          	lui	a6,0x4000
     b78:	04080813          	addi	a6,a6,64 # 4000040 <_stack_end+0x3ec5058>
     b7c:	04000737          	lui	a4,0x4000
     b80:	07800793          	li	a5,120
     b84:	00f82023          	sw	a5,0(a6)
     b88:	01c00613          	li	a2,28
     b8c:	00900313          	li	t1,9
     b90:	04470713          	addi	a4,a4,68 # 4000044 <_stack_end+0x3ec505c>
     b94:	000106b7          	lui	a3,0x10
     b98:	ffc00893          	li	a7,-4
     b9c:	00c557b3          	srl	a5,a0,a2
     ba0:	00f7f793          	andi	a5,a5,15
     ba4:	03778593          	addi	a1,a5,55
     ba8:	00f36463          	bltu	t1,a5,bb0 <handle_exception+0xf4>
     bac:	03078593          	addi	a1,a5,48
     bb0:	00072783          	lw	a5,0(a4)
     bb4:	fed7eee3          	bltu	a5,a3,bb0 <handle_exception+0xf4>
     bb8:	00b82023          	sw	a1,0(a6)
     bbc:	ffc60613          	addi	a2,a2,-4
     bc0:	fd161ee3          	bne	a2,a7,b9c <handle_exception+0xe0>
     bc4:	04000737          	lui	a4,0x4000
     bc8:	04470713          	addi	a4,a4,68 # 4000044 <_stack_end+0x3ec505c>
     bcc:	000106b7          	lui	a3,0x10
     bd0:	00072783          	lw	a5,0(a4)
     bd4:	fed7eee3          	bltu	a5,a3,bd0 <handle_exception+0x114>
     bd8:	040007b7          	lui	a5,0x4000
     bdc:	00a00713          	li	a4,10
     be0:	04e7a023          	sw	a4,64(a5) # 4000040 <_stack_end+0x3ec5058>
     be4:	0000006f          	j	be4 <handle_exception+0x128>
     be8:	00400793          	li	a5,4
     bec:	0af88063          	beq	a7,a5,c8c <handle_exception+0x1d0>
     bf0:	0d089a63          	bne	a7,a6,cc4 <handle_exception+0x208>
     bf4:	04000737          	lui	a4,0x4000
     bf8:	04470713          	addi	a4,a4,68 # 4000044 <_stack_end+0x3ec505c>
     bfc:	000106b7          	lui	a3,0x10
     c00:	00072783          	lw	a5,0(a4)
     c04:	fed7eee3          	bltu	a5,a3,c00 <handle_exception+0x144>
     c08:	040007b7          	lui	a5,0x4000
     c0c:	0ff57513          	zext.b	a0,a0
     c10:	04a7a023          	sw	a0,64(a5) # 4000040 <_stack_end+0x3ec5058>
     c14:	00008067          	ret
     c18:	04000837          	lui	a6,0x4000
     c1c:	0003b637          	lui	a2,0x3b
     c20:	fa460613          	addi	a2,a2,-92 # 3afa4 <loadingBool+0x88>
     c24:	00a00593          	li	a1,10
     c28:	04470713          	addi	a4,a4,68
     c2c:	000106b7          	lui	a3,0x10
     c30:	04080813          	addi	a6,a6,64 # 4000040 <_stack_end+0x3ec5058>
     c34:	00072783          	lw	a5,0(a4)
     c38:	fed7eee3          	bltu	a5,a3,c34 <handle_exception+0x178>
     c3c:	00b82023          	sw	a1,0(a6)
     c40:	00164583          	lbu	a1,1(a2)
     c44:	00160613          	addi	a2,a2,1
     c48:	fe0596e3          	bnez	a1,c34 <handle_exception+0x178>
     c4c:	ebdff06f          	j	b08 <handle_exception+0x4c>
     c50:	04000737          	lui	a4,0x4000
     c54:	04000837          	lui	a6,0x4000
     c58:	0003b637          	lui	a2,0x3b
     c5c:	f8060613          	addi	a2,a2,-128 # 3af80 <loadingBool+0x64>
     c60:	00a00593          	li	a1,10
     c64:	04470713          	addi	a4,a4,68 # 4000044 <_stack_end+0x3ec505c>
     c68:	000106b7          	lui	a3,0x10
     c6c:	04080813          	addi	a6,a6,64 # 4000040 <_stack_end+0x3ec5058>
     c70:	00072783          	lw	a5,0(a4)
     c74:	fed7eee3          	bltu	a5,a3,c70 <handle_exception+0x1b4>
     c78:	00b82023          	sw	a1,0(a6)
     c7c:	00164583          	lbu	a1,1(a2)
     c80:	00160613          	addi	a2,a2,1
     c84:	fe0596e3          	bnez	a1,c70 <handle_exception+0x1b4>
     c88:	e81ff06f          	j	b08 <handle_exception+0x4c>
     c8c:	00054603          	lbu	a2,0(a0)
     c90:	02060a63          	beqz	a2,cc4 <handle_exception+0x208>
     c94:	04000737          	lui	a4,0x4000
     c98:	040005b7          	lui	a1,0x4000
     c9c:	04470713          	addi	a4,a4,68 # 4000044 <_stack_end+0x3ec505c>
     ca0:	000106b7          	lui	a3,0x10
     ca4:	04058593          	addi	a1,a1,64 # 4000040 <_stack_end+0x3ec5058>
     ca8:	00072783          	lw	a5,0(a4)
     cac:	fed7eee3          	bltu	a5,a3,ca8 <handle_exception+0x1ec>
     cb0:	00c5a023          	sw	a2,0(a1)
     cb4:	00154603          	lbu	a2,1(a0)
     cb8:	00150513          	addi	a0,a0,1
     cbc:	fe0616e3          	bnez	a2,ca8 <handle_exception+0x1ec>
     cc0:	00008067          	ret
     cc4:	00008067          	ret

00000cc8 <nextprime>:
     cc8:	00200713          	li	a4,2
     ccc:	00050793          	mv	a5,a0
     cd0:	02a74063          	blt	a4,a0,cf0 <nextprime+0x28>
     cd4:	00100513          	li	a0,1
     cd8:	00f05a63          	blez	a5,cec <nextprime+0x24>
     cdc:	fff78793          	addi	a5,a5,-1
     ce0:	00f037b3          	snez	a5,a5
     ce4:	00278513          	addi	a0,a5,2
     ce8:	00008067          	ret
     cec:	00008067          	ret
     cf0:	00150793          	addi	a5,a0,1
     cf4:	0017e513          	ori	a0,a5,1
     cf8:	00300613          	li	a2,3
     cfc:	02c567b3          	rem	a5,a0,a2
     d00:	40155693          	srai	a3,a0,0x1
     d04:	02078263          	beqz	a5,d28 <nextprime+0x60>
     d08:	00268693          	addi	a3,a3,2 # 10002 <LoadingOutput_bmp+0xd502>
     d0c:	00300793          	li	a5,3
     d10:	00c0006f          	j	d1c <nextprime+0x54>
     d14:	02f56733          	rem	a4,a0,a5
     d18:	00070863          	beqz	a4,d28 <nextprime+0x60>
     d1c:	00178793          	addi	a5,a5,1
     d20:	fef69ae3          	bne	a3,a5,d14 <nextprime+0x4c>
     d24:	00008067          	ret
     d28:	00250513          	addi	a0,a0,2
     d2c:	fd1ff06f          	j	cfc <nextprime+0x34>

00000d30 <generateGaussianKernel>:
     d30:	fa010113          	addi	sp,sp,-96
     d34:	00a12e23          	sw	a0,28(sp)
     d38:	01c12783          	lw	a5,28(sp)
     d3c:	01c12703          	lw	a4,28(sp)
     d40:	04112e23          	sw	ra,92(sp)
     d44:	04812c23          	sw	s0,88(sp)
     d48:	02e787b3          	mul	a5,a5,a4
     d4c:	05212823          	sw	s2,80(sp)
     d50:	05312623          	sw	s3,76(sp)
     d54:	05412423          	sw	s4,72(sp)
     d58:	03a12823          	sw	s10,48(sp)
     d5c:	0003ba37          	lui	s4,0x3b
     d60:	03b12623          	sw	s11,44(sp)
     d64:	00b12c23          	sw	a1,24(sp)
     d68:	0003b437          	lui	s0,0x3b
     d6c:	40f00533          	neg	a0,a5
     d70:	00151513          	slli	a0,a0,0x1
     d74:	1fd010ef          	jal	2770 <__floatsidf>
     d78:	f38a2603          	lw	a2,-200(s4) # 3af38 <loadingBool+0x1c>
     d7c:	f3ca2683          	lw	a3,-196(s4)
     d80:	564010ef          	jal	22e4 <__divdf3>
     d84:	0003b7b7          	lui	a5,0x3b
     d88:	f407a903          	lw	s2,-192(a5) # 3af40 <loadingBool+0x24>
     d8c:	f447a983          	lw	s3,-188(a5)
     d90:	00050613          	mv	a2,a0
     d94:	00058693          	mv	a3,a1
     d98:	00090513          	mv	a0,s2
     d9c:	00098593          	mv	a1,s3
     da0:	f28ff0ef          	jal	4c8 <custom_pow>
     da4:	f4842603          	lw	a2,-184(s0) # 3af48 <loadingBool+0x2c>
     da8:	f4c42683          	lw	a3,-180(s0)
     dac:	538010ef          	jal	22e4 <__divdf3>
     db0:	0003b7b7          	lui	a5,0x3b
     db4:	00050613          	mv	a2,a0
     db8:	00058693          	mv	a3,a1
     dbc:	f207a503          	lw	a0,-224(a5) # 3af20 <loadingBool+0x4>
     dc0:	f247a583          	lw	a1,-220(a5)
     dc4:	520010ef          	jal	22e4 <__divdf3>
     dc8:	01c12d03          	lw	s10,28(sp)
     dcc:	01c12783          	lw	a5,28(sp)
     dd0:	41a00d33          	neg	s10,s10
     dd4:	13a7c863          	blt	a5,s10,f04 <generateGaussianKernel+0x1d4>
     dd8:	f4842783          	lw	a5,-184(s0)
     ddc:	f4c42803          	lw	a6,-180(s0)
     de0:	05612023          	sw	s6,64(sp)
     de4:	03712e23          	sw	s7,60(sp)
     de8:	f38a2b03          	lw	s6,-200(s4)
     dec:	f3ca2b83          	lw	s7,-196(s4)
     df0:	04912a23          	sw	s1,84(sp)
     df4:	05512223          	sw	s5,68(sp)
     df8:	03812c23          	sw	s8,56(sp)
     dfc:	03912a23          	sw	s9,52(sp)
     e00:	00050493          	mv	s1,a0
     e04:	00058c13          	mv	s8,a1
     e08:	00f12423          	sw	a5,8(sp)
     e0c:	01012623          	sw	a6,12(sp)
     e10:	00000a93          	li	s5,0
     e14:	00000d93          	li	s11,0
     e18:	01c12783          	lw	a5,28(sp)
     e1c:	01c12703          	lw	a4,28(sp)
     e20:	00f12a23          	sw	a5,20(sp)
     e24:	40f00a33          	neg	s4,a5
     e28:	09474863          	blt	a4,s4,eb8 <generateGaussianKernel+0x188>
     e2c:	03ad0433          	mul	s0,s10,s10
     e30:	01812783          	lw	a5,24(sp)
     e34:	002a9713          	slli	a4,s5,0x2
     e38:	00e78cb3          	add	s9,a5,a4
     e3c:	004c8c93          	addi	s9,s9,4
     e40:	034a0533          	mul	a0,s4,s4
     e44:	00850533          	add	a0,a0,s0
     e48:	40a00533          	neg	a0,a0
     e4c:	125010ef          	jal	2770 <__floatsidf>
     e50:	000b0613          	mv	a2,s6
     e54:	000b8693          	mv	a3,s7
     e58:	48c010ef          	jal	22e4 <__divdf3>
     e5c:	00050613          	mv	a2,a0
     e60:	00058693          	mv	a3,a1
     e64:	00090513          	mv	a0,s2
     e68:	00098593          	mv	a1,s3
     e6c:	e5cff0ef          	jal	4c8 <custom_pow>
     e70:	00048613          	mv	a2,s1
     e74:	000c0693          	mv	a3,s8
     e78:	27d010ef          	jal	28f4 <__muldf3>
     e7c:	00812603          	lw	a2,8(sp)
     e80:	00c12683          	lw	a3,12(sp)
     e84:	460010ef          	jal	22e4 <__divdf3>
     e88:	9e1ff0ef          	jal	868 <custom_round>
     e8c:	7f0010ef          	jal	267c <__fixdfsi>
     e90:	01c12683          	lw	a3,28(sp)
     e94:	000a0613          	mv	a2,s4
     e98:	feacae23          	sw	a0,-4(s9)
     e9c:	001a0a13          	addi	s4,s4,1
     ea0:	00ad8db3          	add	s11,s11,a0
     ea4:	f946dce3          	bge	a3,s4,e3c <generateGaussianKernel+0x10c>
     ea8:	01412783          	lw	a5,20(sp)
     eac:	00178c93          	addi	s9,a5,1
     eb0:	015c8cb3          	add	s9,s9,s5
     eb4:	00cc8ab3          	add	s5,s9,a2
     eb8:	01c12783          	lw	a5,28(sp)
     ebc:	001d0d13          	addi	s10,s10,1
     ec0:	f5a7dce3          	bge	a5,s10,e18 <generateGaussianKernel+0xe8>
     ec4:	05412483          	lw	s1,84(sp)
     ec8:	04412a83          	lw	s5,68(sp)
     ecc:	04012b03          	lw	s6,64(sp)
     ed0:	03c12b83          	lw	s7,60(sp)
     ed4:	03812c03          	lw	s8,56(sp)
     ed8:	03412c83          	lw	s9,52(sp)
     edc:	05c12083          	lw	ra,92(sp)
     ee0:	05812403          	lw	s0,88(sp)
     ee4:	05012903          	lw	s2,80(sp)
     ee8:	04c12983          	lw	s3,76(sp)
     eec:	04812a03          	lw	s4,72(sp)
     ef0:	03012d03          	lw	s10,48(sp)
     ef4:	000d8513          	mv	a0,s11
     ef8:	02c12d83          	lw	s11,44(sp)
     efc:	06010113          	addi	sp,sp,96
     f00:	00008067          	ret
     f04:	00000d93          	li	s11,0
     f08:	fd5ff06f          	j	edc <generateGaussianKernel+0x1ac>

00000f0c <generateSharpenKernel>:
     f0c:	ff010113          	addi	sp,sp,-16
     f10:	00a12623          	sw	a0,12(sp)
     f14:	00c12703          	lw	a4,12(sp)
     f18:	00c12783          	lw	a5,12(sp)
     f1c:	40e00733          	neg	a4,a4
     f20:	06e7c063          	blt	a5,a4,f80 <generateSharpenKernel+0x74>
     f24:	00000893          	li	a7,0
     f28:	00c12803          	lw	a6,12(sp)
     f2c:	00c12683          	lw	a3,12(sp)
     f30:	410007b3          	neg	a5,a6
     f34:	0ef6c663          	blt	a3,a5,1020 <generateSharpenKernel+0x114>
     f38:	04070863          	beqz	a4,f88 <generateSharpenKernel+0x7c>
     f3c:	00170693          	addi	a3,a4,1
     f40:	ffd6f713          	andi	a4,a3,-3
     f44:	08070a63          	beqz	a4,fd8 <generateSharpenKernel+0xcc>
     f48:	00289713          	slli	a4,a7,0x2
     f4c:	00e58733          	add	a4,a1,a4
     f50:	00c12603          	lw	a2,12(sp)
     f54:	00072023          	sw	zero,0(a4)
     f58:	00078513          	mv	a0,a5
     f5c:	00178793          	addi	a5,a5,1
     f60:	00470713          	addi	a4,a4,4
     f64:	fef656e3          	bge	a2,a5,f50 <generateSharpenKernel+0x44>
     f68:	00180813          	addi	a6,a6,1
     f6c:	01180833          	add	a6,a6,a7
     f70:	00a808b3          	add	a7,a6,a0
     f74:	00c12783          	lw	a5,12(sp)
     f78:	00068713          	mv	a4,a3
     f7c:	fad7d6e3          	bge	a5,a3,f28 <generateSharpenKernel+0x1c>
     f80:	01010113          	addi	sp,sp,16
     f84:	00008067          	ret
     f88:	00289613          	slli	a2,a7,0x2
     f8c:	00c58633          	add	a2,a1,a2
     f90:	0080006f          	j	f98 <generateSharpenKernel+0x8c>
     f94:	00070793          	mv	a5,a4
     f98:	00178713          	addi	a4,a5,1
     f9c:	ffd77693          	andi	a3,a4,-3
     fa0:	0016b693          	seqz	a3,a3
     fa4:	40d006b3          	neg	a3,a3
     fa8:	00079663          	bnez	a5,fb4 <generateSharpenKernel+0xa8>
     fac:	00100713          	li	a4,1
     fb0:	00500693          	li	a3,5
     fb4:	00c12503          	lw	a0,12(sp)
     fb8:	00d62023          	sw	a3,0(a2)
     fbc:	00460613          	addi	a2,a2,4
     fc0:	fce55ae3          	bge	a0,a4,f94 <generateSharpenKernel+0x88>
     fc4:	00180813          	addi	a6,a6,1
     fc8:	01180833          	add	a6,a6,a7
     fcc:	00f808b3          	add	a7,a6,a5
     fd0:	00100693          	li	a3,1
     fd4:	fa1ff06f          	j	f74 <generateSharpenKernel+0x68>
     fd8:	00289613          	slli	a2,a7,0x2
     fdc:	00c58633          	add	a2,a1,a2
     fe0:	0080006f          	j	fe8 <generateSharpenKernel+0xdc>
     fe4:	00070793          	mv	a5,a4
     fe8:	00178713          	addi	a4,a5,1
     fec:	ffd77313          	andi	t1,a4,-3
     ff0:	0017be13          	seqz	t3,a5
     ff4:	00000513          	li	a0,0
     ff8:	00030463          	beqz	t1,1000 <generateSharpenKernel+0xf4>
     ffc:	41c00533          	neg	a0,t3
    1000:	00c12303          	lw	t1,12(sp)
    1004:	00a62023          	sw	a0,0(a2)
    1008:	00460613          	addi	a2,a2,4
    100c:	fce35ce3          	bge	t1,a4,fe4 <generateSharpenKernel+0xd8>
    1010:	00180813          	addi	a6,a6,1
    1014:	01180833          	add	a6,a6,a7
    1018:	00f808b3          	add	a7,a6,a5
    101c:	f59ff06f          	j	f74 <generateSharpenKernel+0x68>
    1020:	00170693          	addi	a3,a4,1
    1024:	f51ff06f          	j	f74 <generateSharpenKernel+0x68>

00001028 <blurringKernel>:
    1028:	ff010113          	addi	sp,sp,-16
    102c:	00112623          	sw	ra,12(sp)
    1030:	00812423          	sw	s0,8(sp)
    1034:	00912223          	sw	s1,4(sp)
    1038:	01212023          	sw	s2,0(sp)
    103c:	0ed05863          	blez	a3,112c <blurringKernel+0x104>
    1040:	00269693          	slli	a3,a3,0x2
    1044:	00d58eb3          	add	t4,a1,a3
    1048:	00000e13          	li	t3,0
    104c:	00000893          	li	a7,0
    1050:	00000313          	li	t1,0
    1054:	00054783          	lbu	a5,0(a0)
    1058:	0005a683          	lw	a3,0(a1)
    105c:	00458593          	addi	a1,a1,4
    1060:	0027d713          	srli	a4,a5,0x2
    1064:	0037f813          	andi	a6,a5,3
    1068:	00777713          	andi	a4,a4,7
    106c:	0057d793          	srli	a5,a5,0x5
    1070:	02d80833          	mul	a6,a6,a3
    1074:	00150513          	addi	a0,a0,1
    1078:	02d70733          	mul	a4,a4,a3
    107c:	01030333          	add	t1,t1,a6
    1080:	02d787b3          	mul	a5,a5,a3
    1084:	00e888b3          	add	a7,a7,a4
    1088:	00fe0e33          	add	t3,t3,a5
    108c:	fcbe94e3          	bne	t4,a1,1054 <blurringKernel+0x2c>
    1090:	01f65793          	srli	a5,a2,0x1f
    1094:	00c787b3          	add	a5,a5,a2
    1098:	4017d793          	srai	a5,a5,0x1
    109c:	00678333          	add	t1,a5,t1
    10a0:	02c345b3          	div	a1,t1,a2
    10a4:	011788b3          	add	a7,a5,a7
    10a8:	01c787b3          	add	a5,a5,t3
    10ac:	00300513          	li	a0,3
    10b0:	02c8c433          	div	s0,a7,a2
    10b4:	02c7c4b3          	div	s1,a5,a2
    10b8:	f88ff0ef          	jal	840 <my_min>
    10bc:	00050593          	mv	a1,a0
    10c0:	00000513          	li	a0,0
    10c4:	f90ff0ef          	jal	854 <my_max>
    10c8:	00050913          	mv	s2,a0
    10cc:	00040593          	mv	a1,s0
    10d0:	00700513          	li	a0,7
    10d4:	f6cff0ef          	jal	840 <my_min>
    10d8:	00050593          	mv	a1,a0
    10dc:	00000513          	li	a0,0
    10e0:	f74ff0ef          	jal	854 <my_max>
    10e4:	00050413          	mv	s0,a0
    10e8:	00700513          	li	a0,7
    10ec:	00241413          	slli	s0,s0,0x2
    10f0:	00048593          	mv	a1,s1
    10f4:	f4cff0ef          	jal	840 <my_min>
    10f8:	00050593          	mv	a1,a0
    10fc:	00000513          	li	a0,0
    1100:	f54ff0ef          	jal	854 <my_max>
    1104:	00551513          	slli	a0,a0,0x5
    1108:	00a40433          	add	s0,s0,a0
    110c:	01240533          	add	a0,s0,s2
    1110:	00c12083          	lw	ra,12(sp)
    1114:	00812403          	lw	s0,8(sp)
    1118:	00412483          	lw	s1,4(sp)
    111c:	00012903          	lw	s2,0(sp)
    1120:	0ff57513          	zext.b	a0,a0
    1124:	01010113          	addi	sp,sp,16
    1128:	00008067          	ret
    112c:	00000e13          	li	t3,0
    1130:	00000893          	li	a7,0
    1134:	00000313          	li	t1,0
    1138:	f59ff06f          	j	1090 <blurringKernel+0x68>

0000113c <matrixGenerator>:
    113c:	fe010113          	addi	sp,sp,-32
    1140:	00812c23          	sw	s0,24(sp)
    1144:	00112e23          	sw	ra,28(sp)
    1148:	00c12623          	sw	a2,12(sp)
    114c:	00070413          	mv	s0,a4
    1150:	02051c63          	bnez	a0,1188 <matrixGenerator+0x4c>
    1154:	02b05063          	blez	a1,1174 <matrixGenerator+0x38>
    1158:	00259593          	slli	a1,a1,0x2
    115c:	00070793          	mv	a5,a4
    1160:	00100693          	li	a3,1
    1164:	00e58733          	add	a4,a1,a4
    1168:	00d7a023          	sw	a3,0(a5)
    116c:	00478793          	addi	a5,a5,4
    1170:	fef71ce3          	bne	a4,a5,1168 <matrixGenerator+0x2c>
    1174:	01c12083          	lw	ra,28(sp)
    1178:	00040513          	mv	a0,s0
    117c:	01812403          	lw	s0,24(sp)
    1180:	02010113          	addi	sp,sp,32
    1184:	00008067          	ret
    1188:	00100793          	li	a5,1
    118c:	06f50e63          	beq	a0,a5,1208 <matrixGenerator+0xcc>
    1190:	00200793          	li	a5,2
    1194:	0ef50263          	beq	a0,a5,1278 <matrixGenerator+0x13c>
    1198:	00300793          	li	a5,3
    119c:	fcf51ce3          	bne	a0,a5,1174 <matrixGenerator+0x38>
    11a0:	00c12783          	lw	a5,12(sp)
    11a4:	00000813          	li	a6,0
    11a8:	00100593          	li	a1,1
    11ac:	fc07c4e3          	bltz	a5,1174 <matrixGenerator+0x38>
    11b0:	00c12783          	lw	a5,12(sp)
    11b4:	00000693          	li	a3,0
    11b8:	0207ce63          	bltz	a5,11f4 <matrixGenerator+0xb8>
    11bc:	00c12783          	lw	a5,12(sp)
    11c0:	07078a63          	beq	a5,a6,1234 <matrixGenerator+0xf8>
    11c4:	00c12783          	lw	a5,12(sp)
    11c8:	00c12603          	lw	a2,12(sp)
    11cc:	00179793          	slli	a5,a5,0x1
    11d0:	00178793          	addi	a5,a5,1
    11d4:	030787b3          	mul	a5,a5,a6
    11d8:	00161613          	slli	a2,a2,0x1
    11dc:	00d787b3          	add	a5,a5,a3
    11e0:	00279793          	slli	a5,a5,0x2
    11e4:	00f407b3          	add	a5,s0,a5
    11e8:	0007a023          	sw	zero,0(a5)
    11ec:	00168693          	addi	a3,a3,1
    11f0:	fcd656e3          	bge	a2,a3,11bc <matrixGenerator+0x80>
    11f4:	00c12783          	lw	a5,12(sp)
    11f8:	00180813          	addi	a6,a6,1
    11fc:	00179793          	slli	a5,a5,0x1
    1200:	fb07d8e3          	bge	a5,a6,11b0 <matrixGenerator+0x74>
    1204:	f71ff06f          	j	1174 <matrixGenerator+0x38>
    1208:	00c12503          	lw	a0,12(sp)
    120c:	00070593          	mv	a1,a4
    1210:	00d12423          	sw	a3,8(sp)
    1214:	b1dff0ef          	jal	d30 <generateGaussianKernel>
    1218:	00812683          	lw	a3,8(sp)
    121c:	01c12083          	lw	ra,28(sp)
    1220:	00a6a023          	sw	a0,0(a3)
    1224:	00040513          	mv	a0,s0
    1228:	01812403          	lw	s0,24(sp)
    122c:	02010113          	addi	sp,sp,32
    1230:	00008067          	ret
    1234:	00c12783          	lw	a5,12(sp)
    1238:	00c12703          	lw	a4,12(sp)
    123c:	00179793          	slli	a5,a5,0x1
    1240:	00178793          	addi	a5,a5,1
    1244:	030787b3          	mul	a5,a5,a6
    1248:	00171713          	slli	a4,a4,0x1
    124c:	00d787b3          	add	a5,a5,a3
    1250:	00279793          	slli	a5,a5,0x2
    1254:	00f407b3          	add	a5,s0,a5
    1258:	00b7a023          	sw	a1,0(a5)
    125c:	00168693          	addi	a3,a3,1
    1260:	f4d75ee3          	bge	a4,a3,11bc <matrixGenerator+0x80>
    1264:	00c12783          	lw	a5,12(sp)
    1268:	00180813          	addi	a6,a6,1
    126c:	00179793          	slli	a5,a5,0x1
    1270:	f507d0e3          	bge	a5,a6,11b0 <matrixGenerator+0x74>
    1274:	f01ff06f          	j	1174 <matrixGenerator+0x38>
    1278:	00c12503          	lw	a0,12(sp)
    127c:	00070593          	mv	a1,a4
    1280:	c8dff0ef          	jal	f0c <generateSharpenKernel>
    1284:	ef1ff06f          	j	1174 <matrixGenerator+0x38>

00001288 <paddingKernel>:
    1288:	fd010113          	addi	sp,sp,-48
    128c:	00a12623          	sw	a0,12(sp)
    1290:	02812623          	sw	s0,44(sp)
    1294:	00c12403          	lw	s0,12(sp)
    1298:	00c12783          	lw	a5,12(sp)
    129c:	40f007b3          	neg	a5,a5
    12a0:	14f44863          	blt	s0,a5,13f0 <paddingKernel+0x168>
    12a4:	408687b3          	sub	a5,a3,s0
    12a8:	03212223          	sw	s2,36(sp)
    12ac:	00070913          	mv	s2,a4
    12b0:	00279713          	slli	a4,a5,0x2
    12b4:	008682b3          	add	t0,a3,s0
    12b8:	00f70733          	add	a4,a4,a5
    12bc:	00671713          	slli	a4,a4,0x6
    12c0:	00229393          	slli	t2,t0,0x2
    12c4:	00c70fb3          	add	t6,a4,a2
    12c8:	005383b3          	add	t2,t2,t0
    12cc:	02912423          	sw	s1,40(sp)
    12d0:	03312023          	sw	s3,32(sp)
    12d4:	01412e23          	sw	s4,28(sp)
    12d8:	01512c23          	sw	s5,24(sp)
    12dc:	01f90fb3          	add	t6,s2,t6
    12e0:	00639393          	slli	t2,t2,0x6
    12e4:	00000a13          	li	s4,0
    12e8:	0ef00493          	li	s1,239
    12ec:	13f00f13          	li	t5,319
    12f0:	00c909b3          	add	s3,s2,a2
    12f4:	00c12303          	lw	t1,12(sp)
    12f8:	00c12683          	lw	a3,12(sp)
    12fc:	406007b3          	neg	a5,t1
    1300:	0af6ce63          	blt	a3,a5,13bc <paddingKernel+0x134>
    1304:	0654f063          	bgeu	s1,t0,1364 <paddingKernel+0xdc>
    1308:	0e54ce63          	blt	s1,t0,1404 <paddingKernel+0x17c>
    130c:	00c30833          	add	a6,t1,a2
    1310:	00e80833          	add	a6,a6,a4
    1314:	01612a23          	sw	s6,20(sp)
    1318:	40660533          	sub	a0,a2,t1
    131c:	01090833          	add	a6,s2,a6
    1320:	01430e33          	add	t3,t1,s4
    1324:	13f00b13          	li	s6,319
    1328:	02c0006f          	j	1354 <paddingKernel+0xcc>
    132c:	0006ce83          	lbu	t4,0(a3)
    1330:	00fe06b3          	add	a3,t3,a5
    1334:	00c12883          	lw	a7,12(sp)
    1338:	00d586b3          	add	a3,a1,a3
    133c:	00078a93          	mv	s5,a5
    1340:	01d68023          	sb	t4,0(a3)
    1344:	00178793          	addi	a5,a5,1
    1348:	00150513          	addi	a0,a0,1
    134c:	fff80813          	addi	a6,a6,-1
    1350:	10f8c263          	blt	a7,a5,1454 <paddingKernel+0x1cc>
    1354:	00ff86b3          	add	a3,t6,a5
    1358:	fcab7ae3          	bgeu	s6,a0,132c <paddingKernel+0xa4>
    135c:	00084e83          	lbu	t4,0(a6)
    1360:	fd1ff06f          	j	1330 <paddingKernel+0xa8>
    1364:	00c30833          	add	a6,t1,a2
    1368:	00780833          	add	a6,a6,t2
    136c:	40660533          	sub	a0,a2,t1
    1370:	01090833          	add	a6,s2,a6
    1374:	01430e33          	add	t3,t1,s4
    1378:	08af4263          	blt	t5,a0,13fc <paddingKernel+0x174>
    137c:	007986b3          	add	a3,s3,t2
    1380:	00f686b3          	add	a3,a3,a5
    1384:	06054c63          	bltz	a0,13fc <paddingKernel+0x174>
    1388:	0006ce83          	lbu	t4,0(a3)
    138c:	00fe06b3          	add	a3,t3,a5
    1390:	00c12883          	lw	a7,12(sp)
    1394:	00d586b3          	add	a3,a1,a3
    1398:	00078a93          	mv	s5,a5
    139c:	01d68023          	sb	t4,0(a3)
    13a0:	00178793          	addi	a5,a5,1
    13a4:	00150513          	addi	a0,a0,1
    13a8:	fff80813          	addi	a6,a6,-1
    13ac:	fcf8d6e3          	bge	a7,a5,1378 <paddingKernel+0xf0>
    13b0:	00130313          	addi	t1,t1,1
    13b4:	01430333          	add	t1,t1,s4
    13b8:	01530a33          	add	s4,t1,s5
    13bc:	00c12783          	lw	a5,12(sp)
    13c0:	fff40413          	addi	s0,s0,-1
    13c4:	14070713          	addi	a4,a4,320
    13c8:	40f007b3          	neg	a5,a5
    13cc:	140f8f93          	addi	t6,t6,320
    13d0:	fff28293          	addi	t0,t0,-1
    13d4:	ec038393          	addi	t2,t2,-320
    13d8:	f0f45ee3          	bge	s0,a5,12f4 <paddingKernel+0x6c>
    13dc:	02812483          	lw	s1,40(sp)
    13e0:	02412903          	lw	s2,36(sp)
    13e4:	02012983          	lw	s3,32(sp)
    13e8:	01c12a03          	lw	s4,28(sp)
    13ec:	01812a83          	lw	s5,24(sp)
    13f0:	02c12403          	lw	s0,44(sp)
    13f4:	03010113          	addi	sp,sp,48
    13f8:	00008067          	ret
    13fc:	00084e83          	lbu	t4,0(a6)
    1400:	f8dff06f          	j	138c <paddingKernel+0x104>
    1404:	00c30833          	add	a6,t1,a2
    1408:	00e80833          	add	a6,a6,a4
    140c:	40660533          	sub	a0,a2,t1
    1410:	01090833          	add	a6,s2,a6
    1414:	01430e33          	add	t3,t1,s4
    1418:	02c0006f          	j	1444 <paddingKernel+0x1bc>
    141c:	0006ce83          	lbu	t4,0(a3)
    1420:	00fe06b3          	add	a3,t3,a5
    1424:	00c12883          	lw	a7,12(sp)
    1428:	00d586b3          	add	a3,a1,a3
    142c:	00078a93          	mv	s5,a5
    1430:	01d68023          	sb	t4,0(a3)
    1434:	00178793          	addi	a5,a5,1
    1438:	00150513          	addi	a0,a0,1
    143c:	fff80813          	addi	a6,a6,-1
    1440:	f6f8c8e3          	blt	a7,a5,13b0 <paddingKernel+0x128>
    1444:	00ff86b3          	add	a3,t6,a5
    1448:	fcaf7ae3          	bgeu	t5,a0,141c <paddingKernel+0x194>
    144c:	00084e83          	lbu	t4,0(a6)
    1450:	fd1ff06f          	j	1420 <paddingKernel+0x198>
    1454:	00130793          	addi	a5,t1,1
    1458:	014787b3          	add	a5,a5,s4
    145c:	01578a33          	add	s4,a5,s5
    1460:	00c12783          	lw	a5,12(sp)
    1464:	fff40413          	addi	s0,s0,-1
    1468:	01412b03          	lw	s6,20(sp)
    146c:	40f007b3          	neg	a5,a5
    1470:	14070713          	addi	a4,a4,320
    1474:	140f8f93          	addi	t6,t6,320
    1478:	fff28293          	addi	t0,t0,-1
    147c:	ec038393          	addi	t2,t2,-320
    1480:	e6f45ae3          	bge	s0,a5,12f4 <paddingKernel+0x6c>
    1484:	f59ff06f          	j	13dc <paddingKernel+0x154>

00001488 <blurring>:
    1488:	81010113          	addi	sp,sp,-2032
    148c:	fffed837          	lui	a6,0xfffed
    1490:	7e812423          	sw	s0,2024(sp)
    1494:	7bb12e23          	sw	s11,1980(sp)
    1498:	7e112623          	sw	ra,2028(sp)
    149c:	7e912223          	sw	s1,2020(sp)
    14a0:	7f212023          	sw	s2,2016(sp)
    14a4:	7d312e23          	sw	s3,2012(sp)
    14a8:	7d412c23          	sw	s4,2008(sp)
    14ac:	7d512a23          	sw	s5,2004(sp)
    14b0:	7d612823          	sw	s6,2000(sp)
    14b4:	7d712623          	sw	s7,1996(sp)
    14b8:	7d812423          	sw	s8,1992(sp)
    14bc:	7d912223          	sw	s9,1988(sp)
    14c0:	7da12023          	sw	s10,1984(sp)
    14c4:	7f010413          	addi	s0,sp,2032
    14c8:	fc080793          	addi	a5,a6,-64 # fffecfc0 <_stack_end+0xffeb1fd8>
    14cc:	00878db3          	add	s11,a5,s0
    14d0:	3ecdae23          	sw	a2,1020(s11)
    14d4:	3fcda783          	lw	a5,1020(s11)
    14d8:	fffee2b7          	lui	t0,0xfffee
    14dc:	b8028293          	addi	t0,t0,-1152 # fffedb80 <_stack_end+0xffeb2b98>
    14e0:	00510133          	add	sp,sp,t0
    14e4:	20078263          	beqz	a5,16e8 <blurring+0x260>
    14e8:	3fcdab03          	lw	s6,1020(s11)
    14ec:	3fcda783          	lw	a5,1020(s11)
    14f0:	fffed737          	lui	a4,0xfffed
    14f4:	001b1b13          	slli	s6,s6,0x1
    14f8:	00179793          	slli	a5,a5,0x1
    14fc:	00178793          	addi	a5,a5,1
    1500:	001b0b13          	addi	s6,s6,1
    1504:	02fb0b33          	mul	s6,s6,a5
    1508:	3c070793          	addi	a5,a4,960 # fffed3c0 <_stack_end+0xffeb23d8>
    150c:	fffed737          	lui	a4,0xfffed
    1510:	3a070693          	addi	a3,a4,928 # fffed3a0 <_stack_end+0xffeb23b8>
    1514:	008787b3          	add	a5,a5,s0
    1518:	008686b3          	add	a3,a3,s0
    151c:	00f6a023          	sw	a5,0(a3)
    1520:	39c70693          	addi	a3,a4,924
    1524:	008686b3          	add	a3,a3,s0
    1528:	00f6a023          	sw	a5,0(a3)
    152c:	39870793          	addi	a5,a4,920
    1530:	008787b3          	add	a5,a5,s0
    1534:	3b070693          	addi	a3,a4,944
    1538:	008686b3          	add	a3,a3,s0
    153c:	0007a023          	sw	zero,0(a5)
    1540:	002b1793          	slli	a5,s6,0x2
    1544:	00f6a023          	sw	a5,0(a3)
    1548:	00fb0c93          	addi	s9,s6,15
    154c:	3b870693          	addi	a3,a4,952
    1550:	00f78c13          	addi	s8,a5,15
    1554:	008686b3          	add	a3,a3,s0
    1558:	ff0cf793          	andi	a5,s9,-16
    155c:	3b470713          	addi	a4,a4,948
    1560:	00f6a023          	sw	a5,0(a3)
    1564:	00870733          	add	a4,a4,s0
    1568:	ff0c7793          	andi	a5,s8,-16
    156c:	00050493          	mv	s1,a0
    1570:	00058a13          	mv	s4,a1
    1574:	00000b93          	li	s7,0
    1578:	00f72023          	sw	a5,0(a4)
    157c:	fffed737          	lui	a4,0xfffed
    1580:	39870793          	addi	a5,a4,920 # fffed398 <_stack_end+0xffeb23b0>
    1584:	008787b3          	add	a5,a5,s0
    1588:	0007a983          	lw	s3,0(a5)
    158c:	39c70793          	addi	a5,a4,924
    1590:	008787b3          	add	a5,a5,s0
    1594:	0007a903          	lw	s2,0(a5)
    1598:	00000c13          	li	s8,0
    159c:	00100d13          	li	s10,1
    15a0:	fffed737          	lui	a4,0xfffed
    15a4:	3b870713          	addi	a4,a4,952 # fffed3b8 <_stack_end+0xffeb23d0>
    15a8:	00870733          	add	a4,a4,s0
    15ac:	00072703          	lw	a4,0(a4)
    15b0:	3fcda783          	lw	a5,1020(s11)
    15b4:	00010a93          	mv	s5,sp
    15b8:	40e10133          	sub	sp,sp,a4
    15bc:	00010c93          	mv	s9,sp
    15c0:	02fc4663          	blt	s8,a5,15ec <blurring+0x164>
    15c4:	3fcda783          	lw	a5,1020(s11)
    15c8:	02fbc263          	blt	s7,a5,15ec <blurring+0x164>
    15cc:	3fcda703          	lw	a4,1020(s11)
    15d0:	14000793          	li	a5,320
    15d4:	40e787b3          	sub	a5,a5,a4
    15d8:	00fc5a63          	bge	s8,a5,15ec <blurring+0x164>
    15dc:	3fcda703          	lw	a4,1020(s11)
    15e0:	0f000793          	li	a5,240
    15e4:	40e787b3          	sub	a5,a5,a4
    15e8:	38fbc063          	blt	s7,a5,1968 <blurring+0x4e0>
    15ec:	3fcda503          	lw	a0,1020(s11)
    15f0:	00048713          	mv	a4,s1
    15f4:	000b8693          	mv	a3,s7
    15f8:	000c0613          	mv	a2,s8
    15fc:	000c8593          	mv	a1,s9
    1600:	c89ff0ef          	jal	1288 <paddingKernel>
    1604:	fffed737          	lui	a4,0xfffed
    1608:	3b470793          	addi	a5,a4,948 # fffed3b4 <_stack_end+0xffeb23cc>
    160c:	008787b3          	add	a5,a5,s0
    1610:	0007a783          	lw	a5,0(a5)
    1614:	3fcda503          	lw	a0,1020(s11)
    1618:	40f10133          	sub	sp,sp,a5
    161c:	00010593          	mv	a1,sp
    1620:	100a1e63          	bnez	s4,173c <blurring+0x2b4>
    1624:	3b070713          	addi	a4,a4,944
    1628:	00870733          	add	a4,a4,s0
    162c:	00072703          	lw	a4,0(a4)
    1630:	00058793          	mv	a5,a1
    1634:	00b70733          	add	a4,a4,a1
    1638:	01605863          	blez	s6,1648 <blurring+0x1c0>
    163c:	01a7a023          	sw	s10,0(a5)
    1640:	00478793          	addi	a5,a5,4
    1644:	fef71ce3          	bne	a4,a5,163c <blurring+0x1b4>
    1648:	000b0693          	mv	a3,s6
    164c:	000b0613          	mv	a2,s6
    1650:	000c8513          	mv	a0,s9
    1654:	9d5ff0ef          	jal	1028 <blurringKernel>
    1658:	00a90023          	sb	a0,0(s2)
    165c:	001c0c13          	addi	s8,s8,1
    1660:	14000793          	li	a5,320
    1664:	00190913          	addi	s2,s2,1
    1668:	00198993          	addi	s3,s3,1
    166c:	000a8113          	mv	sp,s5
    1670:	f2fc18e3          	bne	s8,a5,15a0 <blurring+0x118>
    1674:	fffed6b7          	lui	a3,0xfffed
    1678:	39c68713          	addi	a4,a3,924 # fffed39c <_stack_end+0xffeb23b4>
    167c:	00870733          	add	a4,a4,s0
    1680:	00072703          	lw	a4,0(a4)
    1684:	39c68613          	addi	a2,a3,924
    1688:	00860633          	add	a2,a2,s0
    168c:	14070713          	addi	a4,a4,320
    1690:	00e62023          	sw	a4,0(a2)
    1694:	39868713          	addi	a4,a3,920
    1698:	00870733          	add	a4,a4,s0
    169c:	00072703          	lw	a4,0(a4)
    16a0:	39868693          	addi	a3,a3,920
    16a4:	008686b3          	add	a3,a3,s0
    16a8:	14070713          	addi	a4,a4,320
    16ac:	001b8b93          	addi	s7,s7,1
    16b0:	0f000793          	li	a5,240
    16b4:	00e6a023          	sw	a4,0(a3)
    16b8:	ecfb92e3          	bne	s7,a5,157c <blurring+0xf4>
    16bc:	0034f793          	andi	a5,s1,3
    16c0:	32079a63          	bnez	a5,19f4 <blurring+0x56c>
    16c4:	fffed7b7          	lui	a5,0xfffed
    16c8:	3c078793          	addi	a5,a5,960 # fffed3c0 <_stack_end+0xffeb23d8>
    16cc:	008787b3          	add	a5,a5,s0
    16d0:	0007a703          	lw	a4,0(a5)
    16d4:	00478793          	addi	a5,a5,4
    16d8:	00448493          	addi	s1,s1,4
    16dc:	fee4ae23          	sw	a4,-4(s1)
    16e0:	fc040713          	addi	a4,s0,-64
    16e4:	fee796e3          	bne	a5,a4,16d0 <blurring+0x248>
    16e8:	fffed2b7          	lui	t0,0xfffed
    16ec:	39028293          	addi	t0,t0,912 # fffed390 <_stack_end+0xffeb23a8>
    16f0:	00540133          	add	sp,s0,t0
    16f4:	000122b7          	lui	t0,0x12
    16f8:	48028293          	addi	t0,t0,1152 # 12480 <LoadingOutput_bmp+0xf980>
    16fc:	00510133          	add	sp,sp,t0
    1700:	7ec12083          	lw	ra,2028(sp)
    1704:	7e812403          	lw	s0,2024(sp)
    1708:	7e412483          	lw	s1,2020(sp)
    170c:	7e012903          	lw	s2,2016(sp)
    1710:	7dc12983          	lw	s3,2012(sp)
    1714:	7d812a03          	lw	s4,2008(sp)
    1718:	7d412a83          	lw	s5,2004(sp)
    171c:	7d012b03          	lw	s6,2000(sp)
    1720:	7cc12b83          	lw	s7,1996(sp)
    1724:	7c812c03          	lw	s8,1992(sp)
    1728:	7c412c83          	lw	s9,1988(sp)
    172c:	7c012d03          	lw	s10,1984(sp)
    1730:	7bc12d83          	lw	s11,1980(sp)
    1734:	7f010113          	addi	sp,sp,2032
    1738:	00008067          	ret
    173c:	09aa0e63          	beq	s4,s10,17d8 <blurring+0x350>
    1740:	00200793          	li	a5,2
    1744:	0cfa0863          	beq	s4,a5,1814 <blurring+0x38c>
    1748:	00300793          	li	a5,3
    174c:	f0fa18e3          	bne	s4,a5,165c <blurring+0x1d4>
    1750:	00000693          	li	a3,0
    1754:	00151613          	slli	a2,a0,0x1
    1758:	02054e63          	bltz	a0,1794 <blurring+0x30c>
    175c:	00160f93          	addi	t6,a2,1
    1760:	02af8f33          	mul	t5,t6,a0
    1764:	00000713          	li	a4,0
    1768:	02054263          	bltz	a0,178c <blurring+0x304>
    176c:	02df8eb3          	mul	t4,t6,a3
    1770:	00ee87b3          	add	a5,t4,a4
    1774:	00279793          	slli	a5,a5,0x2
    1778:	00f587b3          	add	a5,a1,a5
    177c:	02d50c63          	beq	a0,a3,17b4 <blurring+0x32c>
    1780:	0007a023          	sw	zero,0(a5)
    1784:	00170713          	addi	a4,a4,1
    1788:	fee654e3          	bge	a2,a4,1770 <blurring+0x2e8>
    178c:	00168693          	addi	a3,a3,1
    1790:	fcd65ae3          	bge	a2,a3,1764 <blurring+0x2dc>
    1794:	3fcda603          	lw	a2,1020(s11)
    1798:	000b0693          	mv	a3,s6
    179c:	000c8513          	mv	a0,s9
    17a0:	00161613          	slli	a2,a2,0x1
    17a4:	00160613          	addi	a2,a2,1
    17a8:	881ff0ef          	jal	1028 <blurringKernel>
    17ac:	00a90023          	sb	a0,0(s2)
    17b0:	eadff06f          	j	165c <blurring+0x1d4>
    17b4:	00ef07b3          	add	a5,t5,a4
    17b8:	00279793          	slli	a5,a5,0x2
    17bc:	00f587b3          	add	a5,a1,a5
    17c0:	01a7a023          	sw	s10,0(a5)
    17c4:	00170713          	addi	a4,a4,1
    17c8:	fae654e3          	bge	a2,a4,1770 <blurring+0x2e8>
    17cc:	00168693          	addi	a3,a3,1
    17d0:	f8d65ae3          	bge	a2,a3,1764 <blurring+0x2dc>
    17d4:	fc1ff06f          	j	1794 <blurring+0x30c>
    17d8:	fffed7b7          	lui	a5,0xfffed
    17dc:	3ac78793          	addi	a5,a5,940 # fffed3ac <_stack_end+0xffeb23c4>
    17e0:	008787b3          	add	a5,a5,s0
    17e4:	00b7a023          	sw	a1,0(a5)
    17e8:	d48ff0ef          	jal	d30 <generateGaussianKernel>
    17ec:	fffed7b7          	lui	a5,0xfffed
    17f0:	3ac78793          	addi	a5,a5,940 # fffed3ac <_stack_end+0xffeb23c4>
    17f4:	008787b3          	add	a5,a5,s0
    17f8:	0007a583          	lw	a1,0(a5)
    17fc:	00050613          	mv	a2,a0
    1800:	000b0693          	mv	a3,s6
    1804:	000c8513          	mv	a0,s9
    1808:	821ff0ef          	jal	1028 <blurringKernel>
    180c:	00a90023          	sb	a0,0(s2)
    1810:	e4dff06f          	j	165c <blurring+0x1d4>
    1814:	fffed7b7          	lui	a5,0xfffed
    1818:	3ac78793          	addi	a5,a5,940 # fffed3ac <_stack_end+0xffeb23c4>
    181c:	008787b3          	add	a5,a5,s0
    1820:	00b7a023          	sw	a1,0(a5)
    1824:	ee8ff0ef          	jal	f0c <generateSharpenKernel>
    1828:	fffed7b7          	lui	a5,0xfffed
    182c:	3ac78793          	addi	a5,a5,940 # fffed3ac <_stack_end+0xffeb23c4>
    1830:	008787b3          	add	a5,a5,s0
    1834:	0007a583          	lw	a1,0(a5)
    1838:	1b605663          	blez	s6,19e4 <blurring+0x55c>
    183c:	fffed7b7          	lui	a5,0xfffed
    1840:	3b078793          	addi	a5,a5,944 # fffed3b0 <_stack_end+0xffeb23c8>
    1844:	008787b3          	add	a5,a5,s0
    1848:	0007a783          	lw	a5,0(a5)
    184c:	00058693          	mv	a3,a1
    1850:	000c8893          	mv	a7,s9
    1854:	00f58533          	add	a0,a1,a5
    1858:	00000e93          	li	t4,0
    185c:	00000f13          	li	t5,0
    1860:	00000593          	li	a1,0
    1864:	0008c783          	lbu	a5,0(a7)
    1868:	0006a603          	lw	a2,0(a3)
    186c:	00468693          	addi	a3,a3,4
    1870:	0027d713          	srli	a4,a5,0x2
    1874:	0037ff93          	andi	t6,a5,3
    1878:	00777713          	andi	a4,a4,7
    187c:	0057d793          	srli	a5,a5,0x5
    1880:	02cf8fb3          	mul	t6,t6,a2
    1884:	00188893          	addi	a7,a7,1
    1888:	02c70733          	mul	a4,a4,a2
    188c:	01f585b3          	add	a1,a1,t6
    1890:	02c787b3          	mul	a5,a5,a2
    1894:	00ef0f33          	add	t5,t5,a4
    1898:	00fe8eb3          	add	t4,t4,a5
    189c:	fcd514e3          	bne	a0,a3,1864 <blurring+0x3dc>
    18a0:	fffedcb7          	lui	s9,0xfffed
    18a4:	3a4c8793          	addi	a5,s9,932 # fffed3a4 <_stack_end+0xffeb23bc>
    18a8:	008787b3          	add	a5,a5,s0
    18ac:	01d7a023          	sw	t4,0(a5)
    18b0:	3acc8793          	addi	a5,s9,940
    18b4:	008787b3          	add	a5,a5,s0
    18b8:	00300513          	li	a0,3
    18bc:	01e7a023          	sw	t5,0(a5)
    18c0:	f81fe0ef          	jal	840 <my_min>
    18c4:	00050593          	mv	a1,a0
    18c8:	00000513          	li	a0,0
    18cc:	f89fe0ef          	jal	854 <my_max>
    18d0:	3acc8793          	addi	a5,s9,940
    18d4:	008787b3          	add	a5,a5,s0
    18d8:	0007af03          	lw	t5,0(a5)
    18dc:	3a8c8793          	addi	a5,s9,936
    18e0:	00050713          	mv	a4,a0
    18e4:	000f0593          	mv	a1,t5
    18e8:	008787b3          	add	a5,a5,s0
    18ec:	00700513          	li	a0,7
    18f0:	00e7a023          	sw	a4,0(a5)
    18f4:	f4dfe0ef          	jal	840 <my_min>
    18f8:	00050593          	mv	a1,a0
    18fc:	00000513          	li	a0,0
    1900:	f55fe0ef          	jal	854 <my_max>
    1904:	3a4c8713          	addi	a4,s9,932
    1908:	00870733          	add	a4,a4,s0
    190c:	00072e83          	lw	t4,0(a4)
    1910:	3acc8713          	addi	a4,s9,940
    1914:	00050793          	mv	a5,a0
    1918:	00870733          	add	a4,a4,s0
    191c:	000e8593          	mv	a1,t4
    1920:	00700513          	li	a0,7
    1924:	00f72023          	sw	a5,0(a4)
    1928:	f19fe0ef          	jal	840 <my_min>
    192c:	00050593          	mv	a1,a0
    1930:	00000513          	li	a0,0
    1934:	f21fe0ef          	jal	854 <my_max>
    1938:	3acc8793          	addi	a5,s9,940
    193c:	008787b3          	add	a5,a5,s0
    1940:	0007a783          	lw	a5,0(a5)
    1944:	3a8c8713          	addi	a4,s9,936
    1948:	00870733          	add	a4,a4,s0
    194c:	00072703          	lw	a4,0(a4)
    1950:	00551693          	slli	a3,a0,0x5
    1954:	00279793          	slli	a5,a5,0x2
    1958:	00d787b3          	add	a5,a5,a3
    195c:	00e78533          	add	a0,a5,a4
    1960:	00a90023          	sb	a0,0(s2)
    1964:	cf9ff06f          	j	165c <blurring+0x1d4>
    1968:	3fcda783          	lw	a5,1020(s11)
    196c:	3fcda703          	lw	a4,1020(s11)
    1970:	40f00eb3          	neg	t4,a5
    1974:	c9d748e3          	blt	a4,t4,1604 <blurring+0x17c>
    1978:	00279513          	slli	a0,a5,0x2
    197c:	00f50533          	add	a0,a0,a5
    1980:	00651513          	slli	a0,a0,0x6
    1984:	40a00533          	neg	a0,a0
    1988:	00000793          	li	a5,0
    198c:	3fcda703          	lw	a4,1020(s11)
    1990:	3fcda683          	lw	a3,1020(s11)
    1994:	40e00f33          	neg	t5,a4
    1998:	03e6cc63          	blt	a3,t5,19d0 <blurring+0x548>
    199c:	40e985b3          	sub	a1,s3,a4
    19a0:	00a585b3          	add	a1,a1,a0
    19a4:	40ff0f33          	sub	t5,t5,a5
    19a8:	40f585b3          	sub	a1,a1,a5
    19ac:	00f58733          	add	a4,a1,a5
    19b0:	00e48733          	add	a4,s1,a4
    19b4:	00074603          	lbu	a2,0(a4)
    19b8:	3fcda683          	lw	a3,1020(s11)
    19bc:	00fc8733          	add	a4,s9,a5
    19c0:	00178793          	addi	a5,a5,1
    19c4:	00c70023          	sb	a2,0(a4)
    19c8:	00ff0733          	add	a4,t5,a5
    19cc:	fee6d0e3          	bge	a3,a4,19ac <blurring+0x524>
    19d0:	3fcda703          	lw	a4,1020(s11)
    19d4:	001e8e93          	addi	t4,t4,1
    19d8:	14050513          	addi	a0,a0,320
    19dc:	fbd758e3          	bge	a4,t4,198c <blurring+0x504>
    19e0:	c25ff06f          	j	1604 <blurring+0x17c>
    19e4:	00000e93          	li	t4,0
    19e8:	00000f13          	li	t5,0
    19ec:	00000593          	li	a1,0
    19f0:	eb1ff06f          	j	18a0 <blurring+0x418>
    19f4:	fffed737          	lui	a4,0xfffed
    19f8:	3a070713          	addi	a4,a4,928 # fffed3a0 <_stack_end+0xffeb23b8>
    19fc:	00870733          	add	a4,a4,s0
    1a00:	00072703          	lw	a4,0(a4)
    1a04:	000137b7          	lui	a5,0x13
    1a08:	c0078793          	addi	a5,a5,-1024 # 12c00 <LoadingOutput_bmp+0x10100>
    1a0c:	00f707b3          	add	a5,a4,a5
    1a10:	fffed5b7          	lui	a1,0xfffed
    1a14:	3a058713          	addi	a4,a1,928 # fffed3a0 <_stack_end+0xffeb23b8>
    1a18:	00870733          	add	a4,a4,s0
    1a1c:	00072603          	lw	a2,0(a4)
    1a20:	3a058593          	addi	a1,a1,928
    1a24:	008585b3          	add	a1,a1,s0
    1a28:	00064683          	lbu	a3,0(a2)
    1a2c:	00164703          	lbu	a4,1(a2)
    1a30:	00260613          	addi	a2,a2,2
    1a34:	00d48023          	sb	a3,0(s1)
    1a38:	00e480a3          	sb	a4,1(s1)
    1a3c:	00c5a023          	sw	a2,0(a1)
    1a40:	00248493          	addi	s1,s1,2
    1a44:	fcc796e3          	bne	a5,a2,1a10 <blurring+0x588>
    1a48:	ca1ff06f          	j	16e8 <blurring+0x260>

00001a4c <init>:
    1a4c:	3ff00693          	li	a3,1023
    1a50:	04000737          	lui	a4,0x4000
    1a54:	040007b7          	lui	a5,0x4000
    1a58:	00d72c23          	sw	a3,24(a4) # 4000018 <_stack_end+0x3ec5030>
    1a5c:	0cd7ac23          	sw	a3,216(a5) # 40000d8 <_stack_end+0x3ec50f0>
    1a60:	f10fe06f          	j	170 <enable_interrupt>

00001a64 <createStaticPixelData>:
    1a64:	0003b7b7          	lui	a5,0x3b
    1a68:	0003b737          	lui	a4,0x3b
    1a6c:	fe47a783          	lw	a5,-28(a5) # 3afe4 <outputHeight>
    1a70:	fe072703          	lw	a4,-32(a4) # 3afe0 <outputWidth>
    1a74:	02e787b3          	mul	a5,a5,a4
    1a78:	0cf05063          	blez	a5,1b38 <createStaticPixelData+0xd4>
    1a7c:	fff78713          	addi	a4,a5,-1
    1a80:	00500793          	li	a5,5
    1a84:	08e7f063          	bgeu	a5,a4,1b04 <createStaticPixelData+0xa0>
    1a88:	00028637          	lui	a2,0x28
    1a8c:	00350693          	addi	a3,a0,3
    1a90:	31c60793          	addi	a5,a2,796 # 2831c <staticPixelData>
    1a94:	40f685b3          	sub	a1,a3,a5
    1a98:	0075b593          	sltiu	a1,a1,7
    1a9c:	06059a63          	bnez	a1,1b10 <createStaticPixelData+0xac>
    1aa0:	00357593          	andi	a1,a0,3
    1aa4:	06059663          	bnez	a1,1b10 <createStaticPixelData+0xac>
    1aa8:	00175713          	srli	a4,a4,0x1
    1aac:	00170713          	addi	a4,a4,1
    1ab0:	00175813          	srli	a6,a4,0x1
    1ab4:	00281813          	slli	a6,a6,0x2
    1ab8:	00050693          	mv	a3,a0
    1abc:	31c60613          	addi	a2,a2,796
    1ac0:	00a80833          	add	a6,a6,a0
    1ac4:	0006a583          	lw	a1,0(a3)
    1ac8:	00468693          	addi	a3,a3,4
    1acc:	00460613          	addi	a2,a2,4
    1ad0:	feb62e23          	sw	a1,-4(a2)
    1ad4:	ff0698e3          	bne	a3,a6,1ac4 <createStaticPixelData+0x60>
    1ad8:	ffe77693          	andi	a3,a4,-2
    1adc:	00177713          	andi	a4,a4,1
    1ae0:	00169693          	slli	a3,a3,0x1
    1ae4:	04070a63          	beqz	a4,1b38 <createStaticPixelData+0xd4>
    1ae8:	00d50533          	add	a0,a0,a3
    1aec:	00054703          	lbu	a4,0(a0)
    1af0:	00d787b3          	add	a5,a5,a3
    1af4:	00e78023          	sb	a4,0(a5)
    1af8:	00154703          	lbu	a4,1(a0)
    1afc:	00e780a3          	sb	a4,1(a5)
    1b00:	00008067          	ret
    1b04:	000287b7          	lui	a5,0x28
    1b08:	00350693          	addi	a3,a0,3
    1b0c:	31c78793          	addi	a5,a5,796 # 2831c <staticPixelData>
    1b10:	ffe77713          	andi	a4,a4,-2
    1b14:	00150513          	addi	a0,a0,1
    1b18:	00e686b3          	add	a3,a3,a4
    1b1c:	fff54703          	lbu	a4,-1(a0)
    1b20:	00250513          	addi	a0,a0,2
    1b24:	00278793          	addi	a5,a5,2
    1b28:	fee78f23          	sb	a4,-2(a5)
    1b2c:	ffe54703          	lbu	a4,-2(a0)
    1b30:	fee78fa3          	sb	a4,-1(a5)
    1b34:	fea694e3          	bne	a3,a0,1b1c <createStaticPixelData+0xb8>
    1b38:	00008067          	ret

00001b3c <updateVGADisplay>:
    1b3c:	06e6da63          	bge	a3,a4,1bb0 <updateVGADisplay+0x74>
    1b40:	0003b7b7          	lui	a5,0x3b
    1b44:	fe47a783          	lw	a5,-28(a5) # 3afe4 <outputHeight>
    1b48:	0003b837          	lui	a6,0x3b
    1b4c:	fe082e83          	lw	t4,-32(a6) # 3afe0 <outputWidth>
    1b50:	fff78793          	addi	a5,a5,-1
    1b54:	04c5de63          	bge	a1,a2,1bb0 <updateVGADisplay+0x74>
    1b58:	02de88b3          	mul	a7,t4,a3
    1b5c:	40d787b3          	sub	a5,a5,a3
    1b60:	00c50833          	add	a6,a0,a2
    1b64:	001e9f13          	slli	t5,t4,0x1
    1b68:	00028337          	lui	t1,0x28
    1b6c:	40c58e33          	sub	t3,a1,a2
    1b70:	03d787b3          	mul	a5,a5,t4
    1b74:	40a888b3          	sub	a7,a7,a0
    1b78:	40f888b3          	sub	a7,a7,a5
    1b7c:	00f80833          	add	a6,a6,a5
    1b80:	010e07b3          	add	a5,t3,a6
    1b84:	31032603          	lw	a2,784(t1) # 28310 <VGA>
    1b88:	0007c583          	lbu	a1,0(a5)
    1b8c:	00f88533          	add	a0,a7,a5
    1b90:	00a60633          	add	a2,a2,a0
    1b94:	00b60023          	sb	a1,0(a2)
    1b98:	00178793          	addi	a5,a5,1
    1b9c:	ff0794e3          	bne	a5,a6,1b84 <updateVGADisplay+0x48>
    1ba0:	00168693          	addi	a3,a3,1
    1ba4:	01e888b3          	add	a7,a7,t5
    1ba8:	41d80833          	sub	a6,a6,t4
    1bac:	fcd71ae3          	bne	a4,a3,1b80 <updateVGADisplay+0x44>
    1bb0:	00008067          	ret

00001bb4 <resetPixelData>:
    1bb4:	00013637          	lui	a2,0x13
    1bb8:	000287b7          	lui	a5,0x28
    1bbc:	31c78793          	addi	a5,a5,796 # 2831c <staticPixelData>
    1bc0:	c0060613          	addi	a2,a2,-1024 # 12c00 <LoadingOutput_bmp+0x10100>
    1bc4:	00015737          	lui	a4,0x15
    1bc8:	70070713          	addi	a4,a4,1792 # 15700 <output_bmp>
    1bcc:	00c78633          	add	a2,a5,a2
    1bd0:	0007a683          	lw	a3,0(a5)
    1bd4:	00478793          	addi	a5,a5,4
    1bd8:	00470713          	addi	a4,a4,4
    1bdc:	fed72e23          	sw	a3,-4(a4)
    1be0:	fec798e3          	bne	a5,a2,1bd0 <resetPixelData+0x1c>
    1be4:	00008067          	ret

00001be8 <clearVGADisplay>:
    1be8:	000136b7          	lui	a3,0x13
    1bec:	00000793          	li	a5,0
    1bf0:	00028637          	lui	a2,0x28
    1bf4:	c0068693          	addi	a3,a3,-1024 # 12c00 <LoadingOutput_bmp+0x10100>
    1bf8:	31062703          	lw	a4,784(a2) # 28310 <VGA>
    1bfc:	00f70733          	add	a4,a4,a5
    1c00:	00070023          	sb	zero,0(a4)
    1c04:	00178793          	addi	a5,a5,1
    1c08:	fed798e3          	bne	a5,a3,1bf8 <clearVGADisplay+0x10>
    1c0c:	00008067          	ret

00001c10 <displayLoading>:
    1c10:	0003b7b7          	lui	a5,0x3b
    1c14:	fe07a303          	lw	t1,-32(a5) # 3afe0 <outputWidth>
    1c18:	0003b7b7          	lui	a5,0x3b
    1c1c:	fe47a783          	lw	a5,-28(a5) # 3afe4 <outputHeight>
    1c20:	06400593          	li	a1,100
    1c24:	02b305b3          	mul	a1,t1,a1
    1c28:	f9b78793          	addi	a5,a5,-101
    1c2c:	00003737          	lui	a4,0x3
    1c30:	b0070713          	addi	a4,a4,-1280 # 2b00 <LoadingOutput_bmp>
    1c34:	0c870513          	addi	a0,a4,200
    1c38:	00131e13          	slli	t3,t1,0x1
    1c3c:	01e00893          	li	a7,30
    1c40:	00028837          	lui	a6,0x28
    1c44:	026787b3          	mul	a5,a5,t1
    1c48:	40e585b3          	sub	a1,a1,a4
    1c4c:	40f585b3          	sub	a1,a1,a5
    1c50:	00f50533          	add	a0,a0,a5
    1c54:	f9c50793          	addi	a5,a0,-100
    1c58:	31082703          	lw	a4,784(a6) # 28310 <VGA>
    1c5c:	0007c683          	lbu	a3,0(a5)
    1c60:	00f58633          	add	a2,a1,a5
    1c64:	00c70733          	add	a4,a4,a2
    1c68:	00d70023          	sb	a3,0(a4)
    1c6c:	00178793          	addi	a5,a5,1
    1c70:	fea794e3          	bne	a5,a0,1c58 <displayLoading+0x48>
    1c74:	fff88893          	addi	a7,a7,-1
    1c78:	01c585b3          	add	a1,a1,t3
    1c7c:	40678533          	sub	a0,a5,t1
    1c80:	fc089ae3          	bnez	a7,1c54 <displayLoading+0x44>
    1c84:	0003b7b7          	lui	a5,0x3b
    1c88:	f007ae23          	sw	zero,-228(a5) # 3af1c <loadingBool>
    1c8c:	00008067          	ret

00001c90 <initiatePicture>:
    1c90:	fe010113          	addi	sp,sp,-32
    1c94:	0003b7b7          	lui	a5,0x3b
    1c98:	01212823          	sw	s2,16(sp)
    1c9c:	fe07a903          	lw	s2,-32(a5) # 3afe0 <outputWidth>
    1ca0:	0003b7b7          	lui	a5,0x3b
    1ca4:	01512223          	sw	s5,4(sp)
    1ca8:	fe47aa83          	lw	s5,-28(a5) # 3afe4 <outputHeight>
    1cac:	01412423          	sw	s4,8(sp)
    1cb0:	06400a13          	li	s4,100
    1cb4:	03490a33          	mul	s4,s2,s4
    1cb8:	f9ba8a93          	addi	s5,s5,-101
    1cbc:	000037b7          	lui	a5,0x3
    1cc0:	b0078793          	addi	a5,a5,-1280 # 2b00 <LoadingOutput_bmp>
    1cc4:	0c878313          	addi	t1,a5,200
    1cc8:	00812c23          	sw	s0,24(sp)
    1ccc:	01312623          	sw	s3,12(sp)
    1cd0:	00112e23          	sw	ra,28(sp)
    1cd4:	00912a23          	sw	s1,20(sp)
    1cd8:	00058613          	mv	a2,a1
    1cdc:	032a8ab3          	mul	s5,s5,s2
    1ce0:	40fa07b3          	sub	a5,s4,a5
    1ce4:	00191993          	slli	s3,s2,0x1
    1ce8:	01e00e13          	li	t3,30
    1cec:	00028437          	lui	s0,0x28
    1cf0:	415788b3          	sub	a7,a5,s5
    1cf4:	01530333          	add	t1,t1,s5
    1cf8:	f9c30793          	addi	a5,t1,-100
    1cfc:	31042703          	lw	a4,784(s0) # 28310 <VGA>
    1d00:	0007c683          	lbu	a3,0(a5)
    1d04:	01178833          	add	a6,a5,a7
    1d08:	01070733          	add	a4,a4,a6
    1d0c:	00d70023          	sb	a3,0(a4)
    1d10:	00178793          	addi	a5,a5,1
    1d14:	fe6794e3          	bne	a5,t1,1cfc <initiatePicture+0x6c>
    1d18:	fffe0e13          	addi	t3,t3,-1
    1d1c:	013888b3          	add	a7,a7,s3
    1d20:	41278333          	sub	t1,a5,s2
    1d24:	fc0e1ae3          	bnez	t3,1cf8 <initiatePicture+0x68>
    1d28:	000158b7          	lui	a7,0x15
    1d2c:	00013837          	lui	a6,0x13
    1d30:	0003b7b7          	lui	a5,0x3b
    1d34:	70088493          	addi	s1,a7,1792 # 15700 <output_bmp>
    1d38:	c0080813          	addi	a6,a6,-1024 # 12c00 <LoadingOutput_bmp+0x10100>
    1d3c:	00028737          	lui	a4,0x28
    1d40:	f007ae23          	sw	zero,-228(a5) # 3af1c <loadingBool>
    1d44:	31c70713          	addi	a4,a4,796 # 2831c <staticPixelData>
    1d48:	01048833          	add	a6,s1,a6
    1d4c:	70088793          	addi	a5,a7,1792
    1d50:	00072683          	lw	a3,0(a4)
    1d54:	00478793          	addi	a5,a5,4
    1d58:	00470713          	addi	a4,a4,4
    1d5c:	fed7ae23          	sw	a3,-4(a5)
    1d60:	ff0798e3          	bne	a5,a6,1d50 <initiatePicture+0xc0>
    1d64:	00050593          	mv	a1,a0
    1d68:	70088513          	addi	a0,a7,1792
    1d6c:	f1cff0ef          	jal	1488 <blurring>
    1d70:	015a0a33          	add	s4,s4,s5
    1d74:	009a0533          	add	a0,s4,s1
    1d78:	14048593          	addi	a1,s1,320
    1d7c:	40a00533          	neg	a0,a0
    1d80:	014585b3          	add	a1,a1,s4
    1d84:	0f000813          	li	a6,240
    1d88:	ec058793          	addi	a5,a1,-320
    1d8c:	31042703          	lw	a4,784(s0)
    1d90:	0007c683          	lbu	a3,0(a5)
    1d94:	00f50633          	add	a2,a0,a5
    1d98:	00c70733          	add	a4,a4,a2
    1d9c:	00d70023          	sb	a3,0(a4)
    1da0:	00178793          	addi	a5,a5,1
    1da4:	fef594e3          	bne	a1,a5,1d8c <initiatePicture+0xfc>
    1da8:	fff80813          	addi	a6,a6,-1
    1dac:	01350533          	add	a0,a0,s3
    1db0:	412585b3          	sub	a1,a1,s2
    1db4:	fc081ae3          	bnez	a6,1d88 <initiatePicture+0xf8>
    1db8:	01c12083          	lw	ra,28(sp)
    1dbc:	01812403          	lw	s0,24(sp)
    1dc0:	01412483          	lw	s1,20(sp)
    1dc4:	01012903          	lw	s2,16(sp)
    1dc8:	00c12983          	lw	s3,12(sp)
    1dcc:	00812a03          	lw	s4,8(sp)
    1dd0:	00412a83          	lw	s5,4(sp)
    1dd4:	02010113          	addi	sp,sp,32
    1dd8:	00008067          	ret

00001ddc <handle_interrupt>:
    1ddc:	01100793          	li	a5,17
    1de0:	04f50863          	beq	a0,a5,1e30 <handle_interrupt+0x54>
    1de4:	01200793          	li	a5,18
    1de8:	00f50863          	beq	a0,a5,1df8 <handle_interrupt+0x1c>
    1dec:	0003b537          	lui	a0,0x3b
    1df0:	fd850513          	addi	a0,a0,-40 # 3afd8 <loadingBool+0xbc>
    1df4:	b49fe06f          	j	93c <display_string>
    1df8:	000287b7          	lui	a5,0x28
    1dfc:	3007a703          	lw	a4,768(a5) # 28300 <btn_counter>
    1e00:	000286b7          	lui	a3,0x28
    1e04:	3046a683          	lw	a3,772(a3) # 28304 <edgecaptureButton>
    1e08:	00170713          	addi	a4,a4,1
    1e0c:	30e7a023          	sw	a4,768(a5)
    1e10:	00100713          	li	a4,1
    1e14:	00e6a023          	sw	a4,0(a3)
    1e18:	3007a783          	lw	a5,768(a5)
    1e1c:	0003b737          	lui	a4,0x3b
    1e20:	f1c72703          	lw	a4,-228(a4) # 3af1c <loadingBool>
    1e24:	0017f793          	andi	a5,a5,1
    1e28:	00e7e7b3          	or	a5,a5,a4
    1e2c:	00078463          	beqz	a5,1e34 <handle_interrupt+0x58>
    1e30:	00008067          	ret
    1e34:	000287b7          	lui	a5,0x28
    1e38:	3087a783          	lw	a5,776(a5) # 28308 <switchData>
    1e3c:	0007a583          	lw	a1,0(a5)
    1e40:	4085d513          	srai	a0,a1,0x8
    1e44:	00357513          	andi	a0,a0,3
    1e48:	0075f593          	andi	a1,a1,7
    1e4c:	e45ff06f          	j	1c90 <initiatePicture>

00001e50 <main>:
    1e50:	fe010113          	addi	sp,sp,-32
    1e54:	0003b7b7          	lui	a5,0x3b
    1e58:	01312623          	sw	s3,12(sp)
    1e5c:	fe47a983          	lw	s3,-28(a5) # 3afe4 <outputHeight>
    1e60:	0003b7b7          	lui	a5,0x3b
    1e64:	01212823          	sw	s2,16(sp)
    1e68:	fe07a903          	lw	s2,-32(a5) # 3afe0 <outputWidth>
    1e6c:	01412423          	sw	s4,8(sp)
    1e70:	00912a23          	sw	s1,20(sp)
    1e74:	03298a33          	mul	s4,s3,s2
    1e78:	00015537          	lui	a0,0x15
    1e7c:	00112e23          	sw	ra,28(sp)
    1e80:	00812c23          	sw	s0,24(sp)
    1e84:	70050493          	addi	s1,a0,1792 # 15700 <output_bmp>
    1e88:	09405263          	blez	s4,1f0c <main+0xbc>
    1e8c:	fffa0713          	addi	a4,s4,-1
    1e90:	00175793          	srli	a5,a4,0x1
    1e94:	00100693          	li	a3,1
    1e98:	00178793          	addi	a5,a5,1
    1e9c:	10e6fc63          	bgeu	a3,a4,1fb4 <main+0x164>
    1ea0:	000286b7          	lui	a3,0x28
    1ea4:	0017d593          	srli	a1,a5,0x1
    1ea8:	00015537          	lui	a0,0x15
    1eac:	31c68713          	addi	a4,a3,796 # 2831c <staticPixelData>
    1eb0:	00259593          	slli	a1,a1,0x2
    1eb4:	31c68693          	addi	a3,a3,796
    1eb8:	70050493          	addi	s1,a0,1792 # 15700 <output_bmp>
    1ebc:	70050613          	addi	a2,a0,1792
    1ec0:	00b705b3          	add	a1,a4,a1
    1ec4:	00062803          	lw	a6,0(a2)
    1ec8:	00468693          	addi	a3,a3,4
    1ecc:	00460613          	addi	a2,a2,4
    1ed0:	ff06ae23          	sw	a6,-4(a3)
    1ed4:	feb698e3          	bne	a3,a1,1ec4 <main+0x74>
    1ed8:	0017f693          	andi	a3,a5,1
    1edc:	02068863          	beqz	a3,1f0c <main+0xbc>
    1ee0:	ffe7f793          	andi	a5,a5,-2
    1ee4:	00179693          	slli	a3,a5,0x1
    1ee8:	000157b7          	lui	a5,0x15
    1eec:	70178793          	addi	a5,a5,1793 # 15701 <output_bmp+0x1>
    1ef0:	00d48633          	add	a2,s1,a3
    1ef4:	00f687b3          	add	a5,a3,a5
    1ef8:	00064583          	lbu	a1,0(a2)
    1efc:	0007c603          	lbu	a2,0(a5)
    1f00:	00d707b3          	add	a5,a4,a3
    1f04:	00b78023          	sb	a1,0(a5)
    1f08:	00c780a3          	sb	a2,1(a5)
    1f0c:	000136b7          	lui	a3,0x13
    1f10:	00000793          	li	a5,0
    1f14:	00028437          	lui	s0,0x28
    1f18:	c0068693          	addi	a3,a3,-1024 # 12c00 <LoadingOutput_bmp+0x10100>
    1f1c:	31042703          	lw	a4,784(s0) # 28310 <VGA>
    1f20:	00f70733          	add	a4,a4,a5
    1f24:	00070023          	sb	zero,0(a4)
    1f28:	00178793          	addi	a5,a5,1
    1f2c:	fed798e3          	bne	a5,a3,1f1c <main+0xcc>
    1f30:	00000613          	li	a2,0
    1f34:	00000593          	li	a1,0
    1f38:	70050513          	addi	a0,a0,1792
    1f3c:	d4cff0ef          	jal	1488 <blurring>
    1f40:	05305c63          	blez	s3,1f98 <main+0x148>
    1f44:	05205a63          	blez	s2,1f98 <main+0x148>
    1f48:	412008b3          	neg	a7,s2
    1f4c:	412a0a33          	sub	s4,s4,s2
    1f50:	412888b3          	sub	a7,a7,s2
    1f54:	01448633          	add	a2,s1,s4
    1f58:	00090593          	mv	a1,s2
    1f5c:	00000813          	li	a6,0
    1f60:	00000513          	li	a0,0
    1f64:	00080793          	mv	a5,a6
    1f68:	31042703          	lw	a4,784(s0)
    1f6c:	00f606b3          	add	a3,a2,a5
    1f70:	0006c683          	lbu	a3,0(a3)
    1f74:	00f70733          	add	a4,a4,a5
    1f78:	00178793          	addi	a5,a5,1
    1f7c:	00d70023          	sb	a3,0(a4)
    1f80:	feb794e3          	bne	a5,a1,1f68 <main+0x118>
    1f84:	00150513          	addi	a0,a0,1
    1f88:	01280833          	add	a6,a6,s2
    1f8c:	01160633          	add	a2,a2,a7
    1f90:	012585b3          	add	a1,a1,s2
    1f94:	fd3518e3          	bne	a0,s3,1f64 <main+0x114>
    1f98:	3ff00693          	li	a3,1023
    1f9c:	040007b7          	lui	a5,0x4000
    1fa0:	04000737          	lui	a4,0x4000
    1fa4:	00d7ac23          	sw	a3,24(a5) # 4000018 <_stack_end+0x3ec5030>
    1fa8:	0cd72c23          	sw	a3,216(a4) # 40000d8 <_stack_end+0x3ec50f0>
    1fac:	9c4fe0ef          	jal	170 <enable_interrupt>
    1fb0:	0000006f          	j	1fb0 <main+0x160>
    1fb4:	00015537          	lui	a0,0x15
    1fb8:	000287b7          	lui	a5,0x28
    1fbc:	00000693          	li	a3,0
    1fc0:	31c78713          	addi	a4,a5,796 # 2831c <staticPixelData>
    1fc4:	70050493          	addi	s1,a0,1792 # 15700 <output_bmp>
    1fc8:	f21ff06f          	j	1ee8 <main+0x98>

00001fcc <__subdf3>:
    1fcc:	800007b7          	lui	a5,0x80000
    1fd0:	00f6c6b3          	xor	a3,a3,a5

00001fd4 <__adddf3>:
    1fd4:	ffe007b7          	lui	a5,0xffe00
    1fd8:	00159393          	slli	t2,a1,0x1
    1fdc:	00169293          	slli	t0,a3,0x1
    1fe0:	2cf3fc63          	bgeu	t2,a5,22b8 <infnan>
    1fe4:	2cf2f263          	bgeu	t0,a5,22a8 <infnan_B_only>
    1fe8:	0153d393          	srli	t2,t2,0x15
    1fec:	0152d293          	srli	t0,t0,0x15
    1ff0:	28038c63          	beqz	t2,2288 <zero_operand>
    1ff4:	2a028063          	beqz	t0,2294 <zero_operand_Y>
    1ff8:	40538333          	sub	t1,t2,t0
    1ffc:	0253f263          	bgeu	t2,t0,2020 <__adddf3+0x4c>
    2000:	40600333          	neg	t1,t1
    2004:	00028393          	mv	t2,t0
    2008:	00c54633          	xor	a2,a0,a2
    200c:	00d5c6b3          	xor	a3,a1,a3
    2010:	00a64533          	xor	a0,a2,a0
    2014:	00b6c5b3          	xor	a1,a3,a1
    2018:	00c54633          	xor	a2,a0,a2
    201c:	00d5c6b3          	xor	a3,a1,a3
    2020:	03733293          	sltiu	t0,t1,55
    2024:	14028663          	beqz	t0,2170 <exit>
    2028:	fff7c793          	not	a5,a5
    202c:	01429293          	slli	t0,t0,0x14
    2030:	0055e5b3          	or	a1,a1,t0
    2034:	0056e6b3          	or	a3,a3,t0
    2038:	00b29293          	slli	t0,t0,0xb
    203c:	0055b733          	sltu	a4,a1,t0
    2040:	00f5f5b3          	and	a1,a1,a5
    2044:	00071a63          	bnez	a4,2058 <__adddf3+0x84>
    2048:	00153713          	seqz	a4,a0
    204c:	fff5c593          	not	a1,a1
    2050:	40a00533          	neg	a0,a0
    2054:	00e585b3          	add	a1,a1,a4
    2058:	0056b733          	sltu	a4,a3,t0
    205c:	00f6f6b3          	and	a3,a3,a5
    2060:	00071a63          	bnez	a4,2074 <sum>
    2064:	00163713          	seqz	a4,a2
    2068:	fff6c693          	not	a3,a3
    206c:	40c00633          	neg	a2,a2
    2070:	00e686b3          	add	a3,a3,a4

00002074 <sum>:
    2074:	fff38393          	addi	t2,t2,-1
    2078:	00000713          	li	a4,0
    207c:	02000793          	li	a5,32
    2080:	00f36a63          	bltu	t1,a5,2094 <sum+0x20>
    2084:	00060713          	mv	a4,a2
    2088:	00068613          	mv	a2,a3
    208c:	41f6d693          	srai	a3,a3,0x1f
    2090:	fe030313          	addi	t1,t1,-32
    2094:	02030863          	beqz	t1,20c4 <sum+0x50>
    2098:	406782b3          	sub	t0,a5,t1
    209c:	005717b3          	sll	a5,a4,t0
    20a0:	00675733          	srl	a4,a4,t1
    20a4:	00f037b3          	snez	a5,a5
    20a8:	00f76733          	or	a4,a4,a5
    20ac:	005617b3          	sll	a5,a2,t0
    20b0:	00f76733          	or	a4,a4,a5
    20b4:	00665633          	srl	a2,a2,t1
    20b8:	005697b3          	sll	a5,a3,t0
    20bc:	00f66633          	or	a2,a2,a5
    20c0:	4066d6b3          	sra	a3,a3,t1
    20c4:	00c50533          	add	a0,a0,a2
    20c8:	00c53633          	sltu	a2,a0,a2
    20cc:	00c686b3          	add	a3,a3,a2
    20d0:	00d585b3          	add	a1,a1,a3
    20d4:	01f5d293          	srli	t0,a1,0x1f
    20d8:	01f29293          	slli	t0,t0,0x1f
    20dc:	0205d263          	bgez	a1,2100 <pos_or_zero>
    20e0:	40e00733          	neg	a4,a4
    20e4:	00173793          	seqz	a5,a4
    20e8:	fff54513          	not	a0,a0
    20ec:	00f50533          	add	a0,a0,a5
    20f0:	00153613          	seqz	a2,a0
    20f4:	00f67633          	and	a2,a2,a5
    20f8:	fff5c593          	not	a1,a1
    20fc:	00c585b3          	add	a1,a1,a2

00002100 <pos_or_zero>:
    2100:	001007b7          	lui	a5,0x100
    2104:	06f5e863          	bltu	a1,a5,2174 <num_canc>
    2108:	00179793          	slli	a5,a5,0x1
    210c:	02f5ea63          	bltu	a1,a5,2140 <rounding>
    2110:	00177793          	andi	a5,a4,1
    2114:	00175713          	srli	a4,a4,0x1
    2118:	00f76733          	or	a4,a4,a5
    211c:	01f51793          	slli	a5,a0,0x1f
    2120:	00f76733          	or	a4,a4,a5
    2124:	00155513          	srli	a0,a0,0x1
    2128:	01f59793          	slli	a5,a1,0x1f
    212c:	00f56533          	or	a0,a0,a5
    2130:	0015d593          	srli	a1,a1,0x1
    2134:	00138393          	addi	t2,t2,1
    2138:	7fe00793          	li	a5,2046
    213c:	14f3de63          	bge	t2,a5,2298 <inf>

00002140 <rounding>:
    2140:	800007b7          	lui	a5,0x80000
    2144:	00f76c63          	bltu	a4,a5,215c <exp_sign_exit>
    2148:	00150513          	addi	a0,a0,1
    214c:	00153613          	seqz	a2,a0
    2150:	00c585b3          	add	a1,a1,a2
    2154:	00f71463          	bne	a4,a5,215c <exp_sign_exit>
    2158:	ffe57513          	andi	a0,a0,-2

0000215c <exp_sign_exit>:
    215c:	00a5e633          	or	a2,a1,a0
    2160:	10060c63          	beqz	a2,2278 <signed_zero>
    2164:	01439393          	slli	t2,t2,0x14
    2168:	007585b3          	add	a1,a1,t2

0000216c <sign_and_exit>:
    216c:	0055e5b3          	or	a1,a1,t0

00002170 <exit>:
    2170:	00008067          	ret

00002174 <num_canc>:
    2174:	00159593          	slli	a1,a1,0x1
    2178:	01f55793          	srli	a5,a0,0x1f
    217c:	00f5e5b3          	or	a1,a1,a5
    2180:	00151513          	slli	a0,a0,0x1
    2184:	01f75793          	srli	a5,a4,0x1f
    2188:	00f56533          	or	a0,a0,a5
    218c:	00171713          	slli	a4,a4,0x1
    2190:	00038793          	mv	a5,t2
    2194:	fff38393          	addi	t2,t2,-1
    2198:	00078663          	beqz	a5,21a4 <denormal_or_str_canc>
    219c:	001007b7          	lui	a5,0x100
    21a0:	faf5f0e3          	bgeu	a1,a5,2140 <rounding>

000021a4 <denormal_or_str_canc>:
    21a4:	00059863          	bnez	a1,21b4 <denormal_or_str_canc+0x10>
    21a8:	00050593          	mv	a1,a0
    21ac:	00000513          	li	a0,0
    21b0:	02000713          	li	a4,32
    21b4:	00058693          	mv	a3,a1
    21b8:	000107b7          	lui	a5,0x10
    21bc:	00f6f663          	bgeu	a3,a5,21c8 <denormal_or_str_canc+0x24>
    21c0:	01069693          	slli	a3,a3,0x10
    21c4:	01070713          	addi	a4,a4,16
    21c8:	00479793          	slli	a5,a5,0x4
    21cc:	00f6f663          	bgeu	a3,a5,21d8 <denormal_or_str_canc+0x34>
    21d0:	00c69693          	slli	a3,a3,0xc
    21d4:	00c70713          	addi	a4,a4,12
    21d8:	00479793          	slli	a5,a5,0x4
    21dc:	00f6f663          	bgeu	a3,a5,21e8 <denormal_or_str_canc+0x44>
    21e0:	00869693          	slli	a3,a3,0x8
    21e4:	00870713          	addi	a4,a4,8
    21e8:	00479793          	slli	a5,a5,0x4
    21ec:	00f6f663          	bgeu	a3,a5,21f8 <denormal_or_str_canc+0x54>
    21f0:	00469693          	slli	a3,a3,0x4
    21f4:	00470713          	addi	a4,a4,4
    21f8:	00279793          	slli	a5,a5,0x2
    21fc:	00f6f663          	bgeu	a3,a5,2208 <denormal_or_str_canc+0x64>
    2200:	00269693          	slli	a3,a3,0x2
    2204:	00270713          	addi	a4,a4,2
    2208:	00179793          	slli	a5,a5,0x1
    220c:	00f6f663          	bgeu	a3,a5,2218 <denormal_or_str_canc+0x74>
    2210:	00169693          	slli	a3,a3,0x1
    2214:	00170713          	addi	a4,a4,1
    2218:	ff570713          	addi	a4,a4,-11
    221c:	04070863          	beqz	a4,226c <denormal_canc>
    2220:	fe070613          	addi	a2,a4,-32
    2224:	02065263          	bgez	a2,2248 <denormal_or_str_canc+0xa4>
    2228:	00c60613          	addi	a2,a2,12
    222c:	00c05c63          	blez	a2,2244 <denormal_or_str_canc+0xa0>
    2230:	00c00693          	li	a3,12
    2234:	40c68633          	sub	a2,a3,a2
    2238:	00e59533          	sll	a0,a1,a4
    223c:	00c5d5b3          	srl	a1,a1,a2
    2240:	0200006f          	j	2260 <denormal_or_str_canc+0xbc>
    2244:	01460613          	addi	a2,a2,20
    2248:	00c595b3          	sll	a1,a1,a2
    224c:	02000693          	li	a3,32
    2250:	40c686b3          	sub	a3,a3,a2
    2254:	00d556b3          	srl	a3,a0,a3
    2258:	00d5e5b3          	or	a1,a1,a3
    225c:	00c51533          	sll	a0,a0,a2
    2260:	40e383b3          	sub	t2,t2,a4
    2264:	0003c463          	bltz	t2,226c <denormal_canc>
    2268:	ef5ff06f          	j	215c <exp_sign_exit>

0000226c <denormal_canc>:
    226c:	00000593          	li	a1,0
    2270:	02c0006f          	j	229c <sign_zero_xl>

00002274 <both_denormals>:
    2274:	00d5f5b3          	and	a1,a1,a3

00002278 <signed_zero>:
    2278:	01f5d593          	srli	a1,a1,0x1f
    227c:	01f59593          	slli	a1,a1,0x1f

00002280 <zero_xl>:
    2280:	00000513          	li	a0,0
    2284:	eedff06f          	j	2170 <exit>

00002288 <zero_operand>:
    2288:	fe0286e3          	beqz	t0,2274 <both_denormals>
    228c:	00068593          	mv	a1,a3
    2290:	00060513          	mv	a0,a2

00002294 <zero_operand_Y>:
    2294:	eddff06f          	j	2170 <exit>

00002298 <inf>:
    2298:	7ff005b7          	lui	a1,0x7ff00

0000229c <sign_zero_xl>:
    229c:	0055e5b3          	or	a1,a1,t0
    22a0:	00000513          	li	a0,0
    22a4:	ecdff06f          	j	2170 <exit>

000022a8 <infnan_B_only>:
    22a8:	00068593          	mv	a1,a3
    22ac:	00060513          	mv	a0,a2
    22b0:	00028393          	mv	t2,t0
    22b4:	0100006f          	j	22c4 <infnan_end>

000022b8 <infnan>:
    22b8:	00f2f663          	bgeu	t0,a5,22c4 <infnan_end>
    22bc:	00058693          	mv	a3,a1
    22c0:	00050613          	mv	a2,a0

000022c4 <infnan_end>:
    22c4:	00b39393          	slli	t2,t2,0xb
    22c8:	00a3e3b3          	or	t2,t2,a0
    22cc:	00039863          	bnez	t2,22dc <produce_nan>
    22d0:	00c51663          	bne	a0,a2,22dc <produce_nan>
    22d4:	00d59463          	bne	a1,a3,22dc <produce_nan>
    22d8:	e99ff06f          	j	2170 <exit>

000022dc <produce_nan>:
    22dc:	7ff805b7          	lui	a1,0x7ff80
    22e0:	fa1ff06f          	j	2280 <zero_xl>

000022e4 <__divdf3>:
    22e4:	ffe007b7          	lui	a5,0xffe00
    22e8:	00159713          	slli	a4,a1,0x1
    22ec:	00169313          	slli	t1,a3,0x1
    22f0:	24f77c63          	bgeu	a4,a5,2548 <inf_nan>
    22f4:	24f37a63          	bgeu	t1,a5,2548 <inf_nan>
    22f8:	01575713          	srli	a4,a4,0x15
    22fc:	01535313          	srli	t1,t1,0x15
    2300:	22070863          	beqz	a4,2530 <zero_denormal>
    2304:	22030663          	beqz	t1,2530 <zero_denormal>

00002308 <normal_case>:
    2308:	40670733          	sub	a4,a4,t1
    230c:	00d5c2b3          	xor	t0,a1,a3
    2310:	00c69693          	slli	a3,a3,0xc
    2314:	00d667b3          	or	a5,a2,a3
    2318:	00c59593          	slli	a1,a1,0xc
    231c:	1e078063          	beqz	a5,24fc <pow_2>
    2320:	100007b7          	lui	a5,0x10000
    2324:	0046d693          	srli	a3,a3,0x4
    2328:	00f6e6b3          	or	a3,a3,a5
    232c:	01865393          	srli	t2,a2,0x18
    2330:	0076e6b3          	or	a3,a3,t2
    2334:	00861613          	slli	a2,a2,0x8
    2338:	0045d393          	srli	t2,a1,0x4
    233c:	0077e7b3          	or	a5,a5,t2
    2340:	01855393          	srli	t2,a0,0x18
    2344:	0077e7b3          	or	a5,a5,t2
    2348:	00851313          	slli	t1,a0,0x8
    234c:	800003b7          	lui	t2,0x80000
    2350:	0072f5b3          	and	a1,t0,t2
    2354:	40d783b3          	sub	t2,a5,a3
    2358:	0013b393          	seqz	t2,t2
    235c:	00c332b3          	sltu	t0,t1,a2
    2360:	0053f3b3          	and	t2,t2,t0
    2364:	00d7b2b3          	sltu	t0,a5,a3
    2368:	0053e3b3          	or	t2,t2,t0
    236c:	3fe70713          	addi	a4,a4,1022
    2370:	40770733          	sub	a4,a4,t2
    2374:	00038a63          	beqz	t2,2388 <normal_case+0x80>
    2378:	00165613          	srli	a2,a2,0x1
    237c:	01f69293          	slli	t0,a3,0x1f
    2380:	00566633          	or	a2,a2,t0
    2384:	0016d693          	srli	a3,a3,0x1
    2388:	00c332b3          	sltu	t0,t1,a2
    238c:	40c30333          	sub	t1,t1,a2
    2390:	40d787b3          	sub	a5,a5,a3
    2394:	405787b3          	sub	a5,a5,t0
    2398:	00165613          	srli	a2,a2,0x1
    239c:	01f69293          	slli	t0,a3,0x1f
    23a0:	00566633          	or	a2,a2,t0
    23a4:	0016d693          	srli	a3,a3,0x1
    23a8:	00100537          	lui	a0,0x100
    23ac:	000803b7          	lui	t2,0x80

000023b0 <div_loop_start>:
    23b0:	40d782b3          	sub	t0,a5,a3
    23b4:	00c37463          	bgeu	t1,a2,23bc <div_loop_start+0xc>
    23b8:	fff28293          	addi	t0,t0,-1
    23bc:	0002c863          	bltz	t0,23cc <div_loop_start+0x1c>
    23c0:	40c30333          	sub	t1,t1,a2
    23c4:	00028793          	mv	a5,t0
    23c8:	00756533          	or	a0,a0,t2
    23cc:	00165613          	srli	a2,a2,0x1
    23d0:	01f69293          	slli	t0,a3,0x1f
    23d4:	00566633          	or	a2,a2,t0
    23d8:	0016d693          	srli	a3,a3,0x1
    23dc:	40d782b3          	sub	t0,a5,a3
    23e0:	00c37463          	bgeu	t1,a2,23e8 <div_loop_start+0x38>
    23e4:	fff28293          	addi	t0,t0,-1
    23e8:	0002ca63          	bltz	t0,23fc <div_loop_start+0x4c>
    23ec:	40c30333          	sub	t1,t1,a2
    23f0:	00028793          	mv	a5,t0
    23f4:	0013d293          	srli	t0,t2,0x1
    23f8:	00556533          	or	a0,a0,t0
    23fc:	00165613          	srli	a2,a2,0x1
    2400:	01f69293          	slli	t0,a3,0x1f
    2404:	00566633          	or	a2,a2,t0
    2408:	0016d693          	srli	a3,a3,0x1
    240c:	40d782b3          	sub	t0,a5,a3
    2410:	00c37463          	bgeu	t1,a2,2418 <div_loop_start+0x68>
    2414:	fff28293          	addi	t0,t0,-1
    2418:	0002ca63          	bltz	t0,242c <div_loop_start+0x7c>
    241c:	40c30333          	sub	t1,t1,a2
    2420:	00028793          	mv	a5,t0
    2424:	0023d293          	srli	t0,t2,0x2
    2428:	00556533          	or	a0,a0,t0
    242c:	00165613          	srli	a2,a2,0x1
    2430:	01f69293          	slli	t0,a3,0x1f
    2434:	00566633          	or	a2,a2,t0
    2438:	0016d693          	srli	a3,a3,0x1
    243c:	40d782b3          	sub	t0,a5,a3
    2440:	00c37463          	bgeu	t1,a2,2448 <div_loop_start+0x98>
    2444:	fff28293          	addi	t0,t0,-1
    2448:	0002ca63          	bltz	t0,245c <div_loop_start+0xac>
    244c:	40c30333          	sub	t1,t1,a2
    2450:	00028793          	mv	a5,t0
    2454:	0033d293          	srli	t0,t2,0x3
    2458:	00556533          	or	a0,a0,t0
    245c:	0067e2b3          	or	t0,a5,t1
    2460:	04028463          	beqz	t0,24a8 <div_loop_exit>
    2464:	00479793          	slli	a5,a5,0x4
    2468:	01c35293          	srli	t0,t1,0x1c
    246c:	0057e7b3          	or	a5,a5,t0
    2470:	00431313          	slli	t1,t1,0x4
    2474:	00369693          	slli	a3,a3,0x3
    2478:	01d65293          	srli	t0,a2,0x1d
    247c:	0056e6b3          	or	a3,a3,t0
    2480:	00361613          	slli	a2,a2,0x3
    2484:	0043d393          	srli	t2,t2,0x4
    2488:	f20394e3          	bnez	t2,23b0 <div_loop_start>
    248c:	001002b7          	lui	t0,0x100
    2490:	00b2f2b3          	and	t0,t0,a1
    2494:	02029463          	bnez	t0,24bc <checks>
    2498:	00a5e5b3          	or	a1,a1,a0
    249c:	00000513          	li	a0,0
    24a0:	800003b7          	lui	t2,0x80000
    24a4:	f0dff06f          	j	23b0 <div_loop_start>

000024a8 <div_loop_exit>:
    24a8:	001002b7          	lui	t0,0x100
    24ac:	00b2f2b3          	and	t0,t0,a1
    24b0:	00029663          	bnez	t0,24bc <checks>
    24b4:	00a5e5b3          	or	a1,a1,a0
    24b8:	00000513          	li	a0,0

000024bc <checks>:
    24bc:	f0370393          	addi	t2,a4,-253
    24c0:	00e3f663          	bgeu	t2,a4,24cc <exp_round>
    24c4:	70000293          	li	t0,1792
    24c8:	0672e063          	bltu	t0,t2,2528 <und_ov_flow>

000024cc <exp_round>:
    24cc:	01471713          	slli	a4,a4,0x14
    24d0:	00e585b3          	add	a1,a1,a4
    24d4:	02d7e263          	bltu	a5,a3,24f8 <exit>
    24d8:	00f6ea63          	bltu	a3,a5,24ec <round_up>
    24dc:	00c36e63          	bltu	t1,a2,24f8 <exit>
    24e0:	00666663          	bltu	a2,t1,24ec <round_up>
    24e4:	01f51293          	slli	t0,a0,0x1f
    24e8:	00028863          	beqz	t0,24f8 <exit>

000024ec <round_up>:
    24ec:	00150513          	addi	a0,a0,1 # 100001 <__stack_size+0x1>
    24f0:	00153293          	seqz	t0,a0
    24f4:	005585b3          	add	a1,a1,t0

000024f8 <exit>:
    24f8:	00008067          	ret

000024fc <pow_2>:
    24fc:	800003b7          	lui	t2,0x80000
    2500:	0072f2b3          	and	t0,t0,t2
    2504:	00c5d593          	srli	a1,a1,0xc
    2508:	0055e5b3          	or	a1,a1,t0
    250c:	3ff70713          	addi	a4,a4,1023
    2510:	02e05463          	blez	a4,2538 <signed_zero>
    2514:	7ff72293          	slti	t0,a4,2047
    2518:	04028a63          	beqz	t0,256c <ovf>
    251c:	01471713          	slli	a4,a4,0x14
    2520:	00e5e5b3          	or	a1,a1,a4
    2524:	00008067          	ret

00002528 <und_ov_flow>:
    2528:	0472c263          	blt	t0,t2,256c <ovf>
    252c:	00c0006f          	j	2538 <signed_zero>

00002530 <zero_denormal>:
    2530:	04030a63          	beqz	t1,2584 <div_by_zero>

00002534 <zero>:
    2534:	00d5c5b3          	xor	a1,a1,a3

00002538 <signed_zero>:
    2538:	01f5d593          	srli	a1,a1,0x1f
    253c:	01f59593          	slli	a1,a1,0x1f
    2540:	00000513          	li	a0,0
    2544:	00008067          	ret

00002548 <inf_nan>:
    2548:	00a032b3          	snez	t0,a0
    254c:	00e2e2b3          	or	t0,t0,a4
    2550:	0257ec63          	bltu	a5,t0,2588 <nan>
    2554:	00c032b3          	snez	t0,a2
    2558:	0062e2b3          	or	t0,t0,t1
    255c:	0257e663          	bltu	a5,t0,2588 <nan>
    2560:	02670463          	beq	a4,t1,2588 <nan>
    2564:	fcf308e3          	beq	t1,a5,2534 <zero>

00002568 <inf>:
    2568:	00d5c5b3          	xor	a1,a1,a3

0000256c <ovf>:
    256c:	7ff006b7          	lui	a3,0x7ff00
    2570:	01f5d593          	srli	a1,a1,0x1f
    2574:	01f59593          	slli	a1,a1,0x1f
    2578:	00d5e5b3          	or	a1,a1,a3
    257c:	00000513          	li	a0,0
    2580:	00008067          	ret

00002584 <div_by_zero>:
    2584:	fe0712e3          	bnez	a4,2568 <inf>

00002588 <nan>:
    2588:	7ff805b7          	lui	a1,0x7ff80
    258c:	00000513          	li	a0,0
    2590:	00008067          	ret

00002594 <__eqdf2>:
    2594:	ffe00737          	lui	a4,0xffe00
    2598:	00159793          	slli	a5,a1,0x1
    259c:	02e7f663          	bgeu	a5,a4,25c8 <nan>
    25a0:	00169793          	slli	a5,a3,0x1
    25a4:	02e7f263          	bgeu	a5,a4,25c8 <nan>
    25a8:	00d5e733          	or	a4,a1,a3
    25ac:	00171713          	slli	a4,a4,0x1
    25b0:	00a76733          	or	a4,a4,a0
    25b4:	00c76733          	or	a4,a4,a2
    25b8:	00070863          	beqz	a4,25c8 <nan>
    25bc:	00c54533          	xor	a0,a0,a2
    25c0:	00d5c5b3          	xor	a1,a1,a3
    25c4:	00a5e733          	or	a4,a1,a0

000025c8 <nan>:
    25c8:	00e03533          	snez	a0,a4
    25cc:	00008067          	ret

000025d0 <__fixdfdi>:
    25d0:	80000737          	lui	a4,0x80000
    25d4:	41f5d793          	srai	a5,a1,0x1f
    25d8:	00159593          	slli	a1,a1,0x1
    25dc:	0155d613          	srli	a2,a1,0x15
    25e0:	c0160613          	addi	a2,a2,-1023
    25e4:	08064663          	bltz	a2,2670 <undflow>
    25e8:	00a59593          	slli	a1,a1,0xa
    25ec:	01555693          	srli	a3,a0,0x15
    25f0:	00d5e5b3          	or	a1,a1,a3
    25f4:	00b51513          	slli	a0,a0,0xb
    25f8:	00e5e5b3          	or	a1,a1,a4
    25fc:	40c00633          	neg	a2,a2
    2600:	01f60613          	addi	a2,a2,31
    2604:	02064263          	bltz	a2,2628 <ge_32>
    2608:	00c5d533          	srl	a0,a1,a2
    260c:	00000593          	li	a1,0
    2610:	00078a63          	beqz	a5,2624 <__fixdfdi+0x54>
    2614:	40a00533          	neg	a0,a0
    2618:	fff5c593          	not	a1,a1
    261c:	00153713          	seqz	a4,a0
    2620:	00e585b3          	add	a1,a1,a4
    2624:	00008067          	ret

00002628 <ge_32>:
    2628:	02060613          	addi	a2,a2,32
    262c:	02c05863          	blez	a2,265c <ovflow>
    2630:	40c00733          	neg	a4,a2
    2634:	00e596b3          	sll	a3,a1,a4
    2638:	00c55533          	srl	a0,a0,a2
    263c:	00d56533          	or	a0,a0,a3
    2640:	00c5d5b3          	srl	a1,a1,a2
    2644:	00078a63          	beqz	a5,2658 <ge_32+0x30>
    2648:	40a00533          	neg	a0,a0
    264c:	fff5c593          	not	a1,a1
    2650:	00153713          	seqz	a4,a0
    2654:	00e585b3          	add	a1,a1,a4
    2658:	00008067          	ret

0000265c <ovflow>:
    265c:	fff00513          	li	a0,-1
    2660:	fff74593          	not	a1,a4
    2664:	00f54533          	xor	a0,a0,a5
    2668:	00f5c5b3          	xor	a1,a1,a5
    266c:	00008067          	ret

00002670 <undflow>:
    2670:	00000513          	li	a0,0
    2674:	00000593          	li	a1,0
    2678:	00008067          	ret

0000267c <__fixdfsi>:
    267c:	80000737          	lui	a4,0x80000
    2680:	41f5d793          	srai	a5,a1,0x1f
    2684:	00159593          	slli	a1,a1,0x1
    2688:	0155d613          	srli	a2,a1,0x15
    268c:	c0160613          	addi	a2,a2,-1023
    2690:	02064e63          	bltz	a2,26cc <undflow>
    2694:	40c00633          	neg	a2,a2
    2698:	01f60613          	addi	a2,a2,31
    269c:	02c05263          	blez	a2,26c0 <ovflow>
    26a0:	00a59593          	slli	a1,a1,0xa
    26a4:	01555513          	srli	a0,a0,0x15
    26a8:	00a5e5b3          	or	a1,a1,a0
    26ac:	00e5e5b3          	or	a1,a1,a4
    26b0:	00c5d533          	srl	a0,a1,a2
    26b4:	00f54533          	xor	a0,a0,a5
    26b8:	40f50533          	sub	a0,a0,a5
    26bc:	00008067          	ret

000026c0 <ovflow>:
    26c0:	fff70513          	addi	a0,a4,-1 # 7fffffff <_stack_end+0x7fec5017>
    26c4:	00f54533          	xor	a0,a0,a5
    26c8:	00008067          	ret

000026cc <undflow>:
    26cc:	00000513          	li	a0,0
    26d0:	00008067          	ret

000026d4 <__floatdidf>:
    26d4:	01f5d793          	srli	a5,a1,0x1f
    26d8:	0005da63          	bgez	a1,26ec <__floatdidf+0x18>
    26dc:	40a00533          	neg	a0,a0
    26e0:	fff5c593          	not	a1,a1
    26e4:	00153613          	seqz	a2,a0
    26e8:	00c585b3          	add	a1,a1,a2
    26ec:	01f79793          	slli	a5,a5,0x1f
    26f0:	43d00613          	li	a2,1085
    26f4:	00059a63          	bnez	a1,2708 <__floatdidf+0x34>
    26f8:	06050a63          	beqz	a0,276c <exit>
    26fc:	00050593          	mv	a1,a0
    2700:	00000513          	li	a0,0
    2704:	fe060613          	addi	a2,a2,-32
    2708:	0005c863          	bltz	a1,2718 <__floatdidf+0x44>
    270c:	fff60613          	addi	a2,a2,-1
    2710:	00159593          	slli	a1,a1,0x1
    2714:	feb04ce3          	bgtz	a1,270c <__floatdidf+0x38>
    2718:	be360713          	addi	a4,a2,-1053
    271c:	00e556b3          	srl	a3,a0,a4
    2720:	00d5e5b3          	or	a1,a1,a3
    2724:	40e00733          	neg	a4,a4
    2728:	00e51533          	sll	a0,a0,a4
    272c:	01551713          	slli	a4,a0,0x15
    2730:	00b55513          	srli	a0,a0,0xb
    2734:	01559693          	slli	a3,a1,0x15
    2738:	00b5d593          	srli	a1,a1,0xb
    273c:	00d56533          	or	a0,a0,a3
    2740:	02075063          	bgez	a4,2760 <__floatdidf+0x8c>
    2744:	00150513          	addi	a0,a0,1
    2748:	00153693          	seqz	a3,a0
    274c:	00d585b3          	add	a1,a1,a3
    2750:	00171713          	slli	a4,a4,0x1
    2754:	00173713          	seqz	a4,a4
    2758:	fff74713          	not	a4,a4
    275c:	00e57533          	and	a0,a0,a4
    2760:	01461613          	slli	a2,a2,0x14
    2764:	00c585b3          	add	a1,a1,a2
    2768:	00f5e5b3          	or	a1,a1,a5

0000276c <exit>:
    276c:	00008067          	ret

00002770 <__floatsidf>:
    2770:	41f55793          	srai	a5,a0,0x1f
    2774:	00f545b3          	xor	a1,a0,a5
    2778:	40f585b3          	sub	a1,a1,a5
    277c:	02050863          	beqz	a0,27ac <exit>
    2780:	01f79793          	slli	a5,a5,0x1f
    2784:	41d00613          	li	a2,1053
    2788:	0005c863          	bltz	a1,2798 <__floatsidf+0x28>
    278c:	fff60613          	addi	a2,a2,-1
    2790:	00159593          	slli	a1,a1,0x1
    2794:	feb04ce3          	bgtz	a1,278c <__floatsidf+0x1c>
    2798:	01559513          	slli	a0,a1,0x15
    279c:	00b5d593          	srli	a1,a1,0xb
    27a0:	01461613          	slli	a2,a2,0x14
    27a4:	00c585b3          	add	a1,a1,a2
    27a8:	00f5e5b3          	or	a1,a1,a5

000027ac <exit>:
    27ac:	00008067          	ret

000027b0 <__gedf2>:
    27b0:	ffe00737          	lui	a4,0xffe00
    27b4:	00159793          	slli	a5,a1,0x1
    27b8:	04e7fe63          	bgeu	a5,a4,2814 <nan>
    27bc:	00169793          	slli	a5,a3,0x1
    27c0:	04e7fa63          	bgeu	a5,a4,2814 <nan>
    27c4:	00d5e733          	or	a4,a1,a3
    27c8:	00171713          	slli	a4,a4,0x1
    27cc:	00a76733          	or	a4,a4,a0
    27d0:	00c76733          	or	a4,a4,a2
    27d4:	00070c63          	beqz	a4,27ec <xor_end>
    27d8:	00d5c733          	xor	a4,a1,a3
    27dc:	02074e63          	bltz	a4,2818 <pn_np>
    27e0:	00d58c63          	beq	a1,a3,27f8 <pp_nn_h_eq>
    27e4:	00d5b733          	sltu	a4,a1,a3
    27e8:	0006a533          	sltz	a0,a3

000027ec <xor_end>:
    27ec:	00e54533          	xor	a0,a0,a4
    27f0:	01f51513          	slli	a0,a0,0x1f
    27f4:	00008067          	ret

000027f8 <pp_nn_h_eq>:
    27f8:	00c50a63          	beq	a0,a2,280c <ret_0>
    27fc:	00a63733          	sltu	a4,a2,a0
    2800:	0005a533          	sltz	a0,a1
    2804:	00154513          	xori	a0,a0,1
    2808:	fe5ff06f          	j	27ec <xor_end>

0000280c <ret_0>:
    280c:	00000513          	li	a0,0
    2810:	00008067          	ret

00002814 <nan>:
    2814:	00070593          	mv	a1,a4

00002818 <pn_np>:
    2818:	0005a533          	sltz	a0,a1
    281c:	01f51513          	slli	a0,a0,0x1f
    2820:	00008067          	ret

00002824 <__ledf2>:
    2824:	ffe00737          	lui	a4,0xffe00
    2828:	00159793          	slli	a5,a1,0x1
    282c:	04e7fa63          	bgeu	a5,a4,2880 <nan>
    2830:	00169793          	slli	a5,a3,0x1
    2834:	04e7f663          	bgeu	a5,a4,2880 <nan>
    2838:	00d5e733          	or	a4,a1,a3
    283c:	00171713          	slli	a4,a4,0x1
    2840:	00a76733          	or	a4,a4,a0
    2844:	00c76733          	or	a4,a4,a2
    2848:	02070863          	beqz	a4,2878 <ret_0>
    284c:	00d5c733          	xor	a4,a1,a3
    2850:	02074a63          	bltz	a4,2884 <pn_np>
    2854:	00d58a63          	beq	a1,a3,2868 <pp_nn_h_eq>
    2858:	00b6b733          	sltu	a4,a3,a1
    285c:	0005a533          	sltz	a0,a1

00002860 <xor_end>:
    2860:	00e54533          	xor	a0,a0,a4
    2864:	00008067          	ret

00002868 <pp_nn_h_eq>:
    2868:	00c50863          	beq	a0,a2,2878 <ret_0>
    286c:	00a63733          	sltu	a4,a2,a0
    2870:	0005a533          	sltz	a0,a1
    2874:	fedff06f          	j	2860 <xor_end>

00002878 <ret_0>:
    2878:	00000513          	li	a0,0
    287c:	00008067          	ret

00002880 <nan>:
    2880:	00070693          	mv	a3,a4

00002884 <pn_np>:
    2884:	0006a533          	sltz	a0,a3
    2888:	00008067          	ret

0000288c <__ltdf2>:
    288c:	ffe00737          	lui	a4,0xffe00
    2890:	00159793          	slli	a5,a1,0x1
    2894:	04e7f663          	bgeu	a5,a4,28e0 <ret_0>
    2898:	00169793          	slli	a5,a3,0x1
    289c:	04e7f263          	bgeu	a5,a4,28e0 <ret_0>
    28a0:	00d5e733          	or	a4,a1,a3
    28a4:	00171713          	slli	a4,a4,0x1
    28a8:	00a76733          	or	a4,a4,a0
    28ac:	00c76733          	or	a4,a4,a2
    28b0:	02070863          	beqz	a4,28e0 <ret_0>
    28b4:	00d5c733          	xor	a4,a1,a3
    28b8:	02074863          	bltz	a4,28e8 <pn_np>
    28bc:	00d58c63          	beq	a1,a3,28d4 <pp_nn_h_eq>
    28c0:	00d5b733          	sltu	a4,a1,a3

000028c4 <end>:
    28c4:	0005a533          	sltz	a0,a1
    28c8:	00e54533          	xor	a0,a0,a4
    28cc:	01f51513          	slli	a0,a0,0x1f
    28d0:	00008067          	ret

000028d4 <pp_nn_h_eq>:
    28d4:	00c50663          	beq	a0,a2,28e0 <ret_0>
    28d8:	00c53733          	sltu	a4,a0,a2
    28dc:	fe9ff06f          	j	28c4 <end>

000028e0 <ret_0>:
    28e0:	00000513          	li	a0,0
    28e4:	00008067          	ret

000028e8 <pn_np>:
    28e8:	0005a533          	sltz	a0,a1
    28ec:	01f51513          	slli	a0,a0,0x1f
    28f0:	00008067          	ret

000028f4 <__muldf3>:
    28f4:	00d5c733          	xor	a4,a1,a3
    28f8:	800007b7          	lui	a5,0x80000
    28fc:	00f772b3          	and	t0,a4,a5
    2900:	7ff00793          	li	a5,2047
    2904:	0145d713          	srli	a4,a1,0x14
    2908:	00f77733          	and	a4,a4,a5
    290c:	0146d313          	srli	t1,a3,0x14
    2910:	00f37333          	and	t1,t1,a5
    2914:	10f70863          	beq	a4,a5,2a24 <inf_nan>
    2918:	10f30663          	beq	t1,a5,2a24 <inf_nan>
    291c:	0e070e63          	beqz	a4,2a18 <signed_zero>
    2920:	0e030c63          	beqz	t1,2a18 <signed_zero>

00002924 <normal_case>:
    2924:	00670733          	add	a4,a4,t1
    2928:	fff007b7          	lui	a5,0xfff00
    292c:	fff7c793          	not	a5,a5
    2930:	00f5f5b3          	and	a1,a1,a5
    2934:	00f6f6b3          	and	a3,a3,a5
    2938:	001007b7          	lui	a5,0x100
    293c:	00f5e5b3          	or	a1,a1,a5
    2940:	00f6e6b3          	or	a3,a3,a5
    2944:	02c58333          	mul	t1,a1,a2
    2948:	02d507b3          	mul	a5,a0,a3
    294c:	00f30333          	add	t1,t1,a5
    2950:	00f337b3          	sltu	a5,t1,a5
    2954:	02c5b3b3          	mulhu	t2,a1,a2
    2958:	00f383b3          	add	t2,t2,a5
    295c:	02d537b3          	mulhu	a5,a0,a3
    2960:	00f383b3          	add	t2,t2,a5
    2964:	02c507b3          	mul	a5,a0,a2
    2968:	02c53633          	mulhu	a2,a0,a2
    296c:	02d58533          	mul	a0,a1,a3
    2970:	02d5b5b3          	mulhu	a1,a1,a3
    2974:	00660633          	add	a2,a2,t1
    2978:	00663333          	sltu	t1,a2,t1
    297c:	006383b3          	add	t2,t2,t1
    2980:	00750533          	add	a0,a0,t2
    2984:	007533b3          	sltu	t2,a0,t2
    2988:	007585b3          	add	a1,a1,t2
    298c:	00f037b3          	snez	a5,a5
    2990:	00f66633          	or	a2,a2,a5
    2994:	20000393          	li	t2,512
    2998:	0275f263          	bgeu	a1,t2,29bc <normal_case+0x98>
    299c:	00159593          	slli	a1,a1,0x1
    29a0:	01f55793          	srli	a5,a0,0x1f
    29a4:	00f5e5b3          	or	a1,a1,a5
    29a8:	00151513          	slli	a0,a0,0x1
    29ac:	01f65793          	srli	a5,a2,0x1f
    29b0:	00f56533          	or	a0,a0,a5
    29b4:	00161613          	slli	a2,a2,0x1
    29b8:	fff70713          	addi	a4,a4,-1 # ffdfffff <_stack_end+0xffcc5017>
    29bc:	00b59593          	slli	a1,a1,0xb
    29c0:	01555793          	srli	a5,a0,0x15
    29c4:	00f5e5b3          	or	a1,a1,a5
    29c8:	00b51513          	slli	a0,a0,0xb
    29cc:	01565793          	srli	a5,a2,0x15
    29d0:	00f56533          	or	a0,a0,a5
    29d4:	00b61613          	slli	a2,a2,0xb
    29d8:	c0170713          	addi	a4,a4,-1023
    29dc:	7fe00313          	li	t1,2046
    29e0:	02677863          	bgeu	a4,t1,2a10 <und_ov_flow>
    29e4:	01471713          	slli	a4,a4,0x14
    29e8:	00e585b3          	add	a1,a1,a4

000029ec <rounding>:
    29ec:	800007b7          	lui	a5,0x80000
    29f0:	00f66c63          	bltu	a2,a5,2a08 <exit>
    29f4:	00150513          	addi	a0,a0,1
    29f8:	00153313          	seqz	t1,a0
    29fc:	006585b3          	add	a1,a1,t1
    2a00:	00f61463          	bne	a2,a5,2a08 <exit>
    2a04:	ffe57513          	andi	a0,a0,-2

00002a08 <exit>:
    2a08:	0055e5b3          	or	a1,a1,t0
    2a0c:	00008067          	ret

00002a10 <und_ov_flow>:
    2a10:	04e04463          	bgtz	a4,2a58 <inf>
    2a14:	0040006f          	j	2a18 <signed_zero>

00002a18 <signed_zero>:
    2a18:	00028593          	mv	a1,t0

00002a1c <zero_xl>:
    2a1c:	00000513          	li	a0,0
    2a20:	00008067          	ret

00002a24 <inf_nan>:
    2a24:	7ff00393          	li	t2,2047
    2a28:	01571793          	slli	a5,a4,0x15
    2a2c:	02078c63          	beqz	a5,2a64 <nan>
    2a30:	01531793          	slli	a5,t1,0x15
    2a34:	02078863          	beqz	a5,2a64 <nan>
    2a38:	00771863          	bne	a4,t2,2a48 <inf_nan+0x24>
    2a3c:	00c59793          	slli	a5,a1,0xc
    2a40:	00a7e7b3          	or	a5,a5,a0
    2a44:	02079063          	bnez	a5,2a64 <nan>
    2a48:	00731863          	bne	t1,t2,2a58 <inf>
    2a4c:	00c69713          	slli	a4,a3,0xc
    2a50:	00c76733          	or	a4,a4,a2
    2a54:	00071863          	bnez	a4,2a64 <nan>

00002a58 <inf>:
    2a58:	7ff005b7          	lui	a1,0x7ff00
    2a5c:	0055e5b3          	or	a1,a1,t0
    2a60:	fbdff06f          	j	2a1c <zero_xl>

00002a64 <nan>:
    2a64:	7ff805b7          	lui	a1,0x7ff80
    2a68:	fb5ff06f          	j	2a1c <zero_xl>
