
main.elf:     file format elf32-littleriscv


Disassembly of section .text:

00000000 <_isr_handler>:
       0:	0080006f          	j	8 <_isr_routine>
       4:	1440006f          	j	148 <_start>

00000008 <_isr_routine>:
       8:	f8010113          	addi	sp,sp,-128
       c:	00112023          	sw	ra,0(sp)
      10:	00312423          	sw	gp,8(sp)
      14:	00412623          	sw	tp,12(sp)
      18:	00512823          	sw	t0,16(sp)
      1c:	00612a23          	sw	t1,20(sp)
      20:	00712c23          	sw	t2,24(sp)
      24:	00812e23          	sw	s0,28(sp)
      28:	02912023          	sw	s1,32(sp)
      2c:	02a12223          	sw	a0,36(sp)
      30:	02b12423          	sw	a1,40(sp)
      34:	02c12623          	sw	a2,44(sp)
      38:	02d12823          	sw	a3,48(sp)
      3c:	02e12a23          	sw	a4,52(sp)
      40:	02f12c23          	sw	a5,56(sp)
      44:	03012e23          	sw	a6,60(sp)
      48:	05112023          	sw	a7,64(sp)
      4c:	05212223          	sw	s2,68(sp)
      50:	05312423          	sw	s3,72(sp)
      54:	05412623          	sw	s4,76(sp)
      58:	05512823          	sw	s5,80(sp)
      5c:	05612a23          	sw	s6,84(sp)
      60:	05712c23          	sw	s7,88(sp)
      64:	05812e23          	sw	s8,92(sp)
      68:	07912023          	sw	s9,96(sp)
      6c:	07a12223          	sw	s10,100(sp)
      70:	07b12423          	sw	s11,104(sp)
      74:	07c12623          	sw	t3,108(sp)
      78:	07d12823          	sw	t4,112(sp)
      7c:	07e12a23          	sw	t5,116(sp)
      80:	07f12c23          	sw	t6,120(sp)
      84:	342022f3          	csrr	t0,mcause
      88:	80000337          	lui	t1,0x80000
      8c:	02536463          	bltu	t1,t0,b4 <external_irq>
      90:	00028833          	add	a6,t0,zero
      94:	00b00313          	li	t1,11
      98:	00628463          	beq	t0,t1,a0 <skip_init_args>
      9c:	34102573          	csrr	a0,mepc

000000a0 <skip_init_args>:
      a0:	3c4010ef          	jal	1464 <handle_exception>
      a4:	341022f3          	csrr	t0,mepc
      a8:	00428293          	addi	t0,t0,4
      ac:	34129073          	csrw	mepc,t0
      b0:	0180006f          	j	c8 <restore>

000000b4 <external_irq>:
      b4:	800002b7          	lui	t0,0x80000
      b8:	fff28293          	addi	t0,t0,-1 # 7fffffff <_stack_end+0x7fed86cf>
      bc:	34202373          	csrr	t1,mcause
      c0:	0062f533          	and	a0,t0,t1
      c4:	134000ef          	jal	1f8 <handle_interrupt>

000000c8 <restore>:
      c8:	00012083          	lw	ra,0(sp)
      cc:	00812183          	lw	gp,8(sp)
      d0:	00c12203          	lw	tp,12(sp)
      d4:	01012283          	lw	t0,16(sp)
      d8:	01412303          	lw	t1,20(sp)
      dc:	01812383          	lw	t2,24(sp)
      e0:	01c12403          	lw	s0,28(sp)
      e4:	02012483          	lw	s1,32(sp)
      e8:	02412503          	lw	a0,36(sp)
      ec:	02812583          	lw	a1,40(sp)
      f0:	02c12603          	lw	a2,44(sp)
      f4:	03012683          	lw	a3,48(sp)
      f8:	03412703          	lw	a4,52(sp)
      fc:	03812783          	lw	a5,56(sp)
     100:	03c12803          	lw	a6,60(sp)
     104:	04012883          	lw	a7,64(sp)
     108:	04412903          	lw	s2,68(sp)
     10c:	04812983          	lw	s3,72(sp)
     110:	04c12a03          	lw	s4,76(sp)
     114:	05012a83          	lw	s5,80(sp)
     118:	05412b03          	lw	s6,84(sp)
     11c:	05812b83          	lw	s7,88(sp)
     120:	05c12c03          	lw	s8,92(sp)
     124:	06012c83          	lw	s9,96(sp)
     128:	06412d03          	lw	s10,100(sp)
     12c:	06812d83          	lw	s11,104(sp)
     130:	06c12e03          	lw	t3,108(sp)
     134:	07012e83          	lw	t4,112(sp)
     138:	07412f03          	lw	t5,116(sp)
     13c:	07812f83          	lw	t6,120(sp)
     140:	08010113          	addi	sp,sp,128
     144:	30200073          	mret

00000148 <_start>:
     148:	00127117          	auipc	sp,0x127
     14c:	7e810113          	addi	sp,sp,2024 # 127930 <_stack_end>
     150:	00028197          	auipc	gp,0x28
     154:	da818193          	addi	gp,gp,-600 # 27ef8 <__global_pointer>
     158:	00002517          	auipc	a0,0x2
     15c:	d0c50513          	addi	a0,a0,-756 # 1e64 <welcome_msg>
     160:	00400893          	li	a7,4
     164:	00000073          	ecall
     168:	174000ef          	jal	2dc <main>

0000016c <loop>:
     16c:	0000006f          	j	16c <loop>

00000170 <enable_interrupt>:
     170:	30496073          	csrsi	mie,18
     174:	3001e073          	csrsi	mstatus,3
     178:	00008067          	ret

0000017c <init>:
     17c:	3ff00693          	li	a3,1023
     180:	04000737          	lui	a4,0x4000
     184:	040007b7          	lui	a5,0x4000
     188:	00d72c23          	sw	a3,24(a4) # 4000018 <_stack_end+0x3ed86e8>
     18c:	0cd7ac23          	sw	a3,216(a5) # 40000d8 <_stack_end+0x3ed87a8>
     190:	fe1ff06f          	j	170 <enable_interrupt>

00000194 <displayKernels>:
     194:	040007b7          	lui	a5,0x4000
     198:	00451513          	slli	a0,a0,0x4
     19c:	05078793          	addi	a5,a5,80 # 4000050 <_stack_end+0x3ed8720>
     1a0:	00f50533          	add	a0,a0,a5
     1a4:	00b52023          	sw	a1,0(a0)
     1a8:	00008067          	ret

000001ac <convert_segment>:
     1ac:	00900793          	li	a5,9
     1b0:	00a7ee63          	bltu	a5,a0,1cc <convert_segment+0x20>
     1b4:	000277b7          	lui	a5,0x27
     1b8:	00251513          	slli	a0,a0,0x2
     1bc:	71478793          	addi	a5,a5,1812 # 27714 <CSWTCH.11>
     1c0:	00a787b3          	add	a5,a5,a0
     1c4:	0007a503          	lw	a0,0(a5)
     1c8:	00008067          	ret
     1cc:	0ff00513          	li	a0,255
     1d0:	00008067          	ret

000001d4 <getKernel>:
     1d4:	000277b7          	lui	a5,0x27
     1d8:	7007a703          	lw	a4,1792(a5) # 27700 <switchData>
     1dc:	00400793          	li	a5,4
     1e0:	00072503          	lw	a0,0(a4)
     1e4:	40755513          	srai	a0,a0,0x7
     1e8:	00757513          	andi	a0,a0,7
     1ec:	00a7d463          	bge	a5,a0,1f4 <getKernel+0x20>
     1f0:	00400513          	li	a0,4
     1f4:	00008067          	ret

000001f8 <handle_interrupt>:
     1f8:	01200793          	li	a5,18
     1fc:	00f50463          	beq	a0,a5,204 <handle_interrupt+0xc>
     200:	00008067          	ret
     204:	000277b7          	lui	a5,0x27
     208:	6f87a703          	lw	a4,1784(a5) # 276f8 <btn_counter>
     20c:	000276b7          	lui	a3,0x27
     210:	6fc6a683          	lw	a3,1788(a3) # 276fc <edgecaptureButton>
     214:	00170713          	addi	a4,a4,1
     218:	6ee7ac23          	sw	a4,1784(a5)
     21c:	00100713          	li	a4,1
     220:	00e6a023          	sw	a4,0(a3)
     224:	6f87a783          	lw	a5,1784(a5)
     228:	0017f793          	andi	a5,a5,1
     22c:	fc079ae3          	bnez	a5,200 <handle_interrupt+0x8>
     230:	000277b7          	lui	a5,0x27
     234:	7007a703          	lw	a4,1792(a5) # 27700 <switchData>
     238:	00400793          	li	a5,4
     23c:	00072603          	lw	a2,0(a4)
     240:	40765593          	srai	a1,a2,0x7
     244:	0075f593          	andi	a1,a1,7
     248:	00767613          	andi	a2,a2,7
     24c:	00b7d463          	bge	a5,a1,254 <handle_interrupt+0x5c>
     250:	00400593          	li	a1,4
     254:	00015537          	lui	a0,0x15
     258:	af850513          	addi	a0,a0,-1288 # 14af8 <output_bmp>
     25c:	1d90006f          	j	c34 <blurring>

00000260 <displayMenu>:
     260:	000277b7          	lui	a5,0x27
     264:	7007a783          	lw	a5,1792(a5) # 27700 <switchData>
     268:	00027737          	lui	a4,0x27
     26c:	00400613          	li	a2,4
     270:	0007a683          	lw	a3,0(a5)
     274:	71470713          	addi	a4,a4,1812 # 27714 <CSWTCH.11>
     278:	4076d793          	srai	a5,a3,0x7
     27c:	0077f793          	andi	a5,a5,7
     280:	00f65463          	bge	a2,a5,288 <displayMenu+0x28>
     284:	00400793          	li	a5,4
     288:	00279793          	slli	a5,a5,0x2
     28c:	00f707b3          	add	a5,a4,a5
     290:	0007a783          	lw	a5,0(a5)
     294:	04000837          	lui	a6,0x4000
     298:	0076f693          	andi	a3,a3,7
     29c:	0af82023          	sw	a5,160(a6) # 40000a0 <_stack_end+0x3ed8770>
     2a0:	00269693          	slli	a3,a3,0x2
     2a4:	0bf00793          	li	a5,191
     2a8:	04000537          	lui	a0,0x4000
     2ac:	08f52823          	sw	a5,144(a0) # 4000090 <_stack_end+0x3ed8760>
     2b0:	00d70733          	add	a4,a4,a3
     2b4:	040005b7          	lui	a1,0x4000
     2b8:	08f5a023          	sw	a5,128(a1) # 4000080 <_stack_end+0x3ed8750>
     2bc:	00072883          	lw	a7,0(a4)
     2c0:	04000637          	lui	a2,0x4000
     2c4:	06f62823          	sw	a5,112(a2) # 4000070 <_stack_end+0x3ed8740>
     2c8:	040006b7          	lui	a3,0x4000
     2cc:	04000737          	lui	a4,0x4000
     2d0:	06f6a023          	sw	a5,96(a3) # 4000060 <_stack_end+0x3ed8730>
     2d4:	05172823          	sw	a7,80(a4) # 4000050 <_stack_end+0x3ed8720>
     2d8:	00008067          	ret

000002dc <main>:
     2dc:	ff010113          	addi	sp,sp,-16
     2e0:	3ff00693          	li	a3,1023
     2e4:	00112623          	sw	ra,12(sp)
     2e8:	040007b7          	lui	a5,0x4000
     2ec:	00d7ac23          	sw	a3,24(a5) # 4000018 <_stack_end+0x3ed86e8>
     2f0:	04000737          	lui	a4,0x4000
     2f4:	0cd72c23          	sw	a3,216(a4) # 40000d8 <_stack_end+0x3ed87a8>
     2f8:	e79ff0ef          	jal	170 <enable_interrupt>
     2fc:	00015537          	lui	a0,0x15
     300:	00000613          	li	a2,0
     304:	af850513          	addi	a0,a0,-1288 # 14af8 <output_bmp>
     308:	00000593          	li	a1,0
     30c:	129000ef          	jal	c34 <blurring>
     310:	000277b7          	lui	a5,0x27
     314:	7007af83          	lw	t6,1792(a5) # 27700 <switchData>
     318:	04000eb7          	lui	t4,0x4000
     31c:	04000e37          	lui	t3,0x4000
     320:	04000337          	lui	t1,0x4000
     324:	040008b7          	lui	a7,0x4000
     328:	04000837          	lui	a6,0x4000
     32c:	04000537          	lui	a0,0x4000
     330:	00027637          	lui	a2,0x27
     334:	71460613          	addi	a2,a2,1812 # 27714 <CSWTCH.11>
     338:	00400f13          	li	t5,4
     33c:	0a0e8e93          	addi	t4,t4,160 # 40000a0 <_stack_end+0x3ed8770>
     340:	090e0e13          	addi	t3,t3,144 # 4000090 <_stack_end+0x3ed8760>
     344:	0bf00693          	li	a3,191
     348:	08030313          	addi	t1,t1,128 # 4000080 <_stack_end+0x3ed8750>
     34c:	07088893          	addi	a7,a7,112 # 4000070 <_stack_end+0x3ed8740>
     350:	06080813          	addi	a6,a6,96 # 4000060 <_stack_end+0x3ed8730>
     354:	05050513          	addi	a0,a0,80 # 4000050 <_stack_end+0x3ed8720>
     358:	000fa783          	lw	a5,0(t6)
     35c:	0077f713          	andi	a4,a5,7
     360:	4077d793          	srai	a5,a5,0x7
     364:	00271713          	slli	a4,a4,0x2
     368:	0077f793          	andi	a5,a5,7
     36c:	00e60733          	add	a4,a2,a4
     370:	00ff5463          	bge	t5,a5,378 <main+0x9c>
     374:	00400793          	li	a5,4
     378:	00279793          	slli	a5,a5,0x2
     37c:	00f607b3          	add	a5,a2,a5
     380:	0007a583          	lw	a1,0(a5)
     384:	00072783          	lw	a5,0(a4)
     388:	00bea023          	sw	a1,0(t4)
     38c:	00de2023          	sw	a3,0(t3)
     390:	00d32023          	sw	a3,0(t1)
     394:	00d8a023          	sw	a3,0(a7)
     398:	00d82023          	sw	a3,0(a6)
     39c:	00f52023          	sw	a5,0(a0)
     3a0:	fb9ff06f          	j	358 <main+0x7c>

000003a4 <set_leds>:
     3a4:	3ff57513          	andi	a0,a0,1023
     3a8:	040007b7          	lui	a5,0x4000
     3ac:	00a7a023          	sw	a0,0(a5) # 4000000 <_stack_end+0x3ed86d0>
     3b0:	00008067          	ret

000003b4 <generateSharpenKernel>:
     3b4:	ff010113          	addi	sp,sp,-16
     3b8:	00a12623          	sw	a0,12(sp)
     3bc:	00c12783          	lw	a5,12(sp)
     3c0:	10078c63          	beqz	a5,4d8 <generateSharpenKernel+0x124>
     3c4:	00c12703          	lw	a4,12(sp)
     3c8:	00c12783          	lw	a5,12(sp)
     3cc:	00000893          	li	a7,0
     3d0:	40e00733          	neg	a4,a4
     3d4:	04e7ce63          	blt	a5,a4,430 <generateSharpenKernel+0x7c>
     3d8:	00c12803          	lw	a6,12(sp)
     3dc:	00c12683          	lw	a3,12(sp)
     3e0:	410007b3          	neg	a5,a6
     3e4:	0ef6c663          	blt	a3,a5,4d0 <generateSharpenKernel+0x11c>
     3e8:	04070863          	beqz	a4,438 <generateSharpenKernel+0x84>
     3ec:	00170693          	addi	a3,a4,1
     3f0:	ffd6f713          	andi	a4,a3,-3
     3f4:	08070a63          	beqz	a4,488 <generateSharpenKernel+0xd4>
     3f8:	00289713          	slli	a4,a7,0x2
     3fc:	00e58733          	add	a4,a1,a4
     400:	00c12603          	lw	a2,12(sp)
     404:	00072023          	sw	zero,0(a4)
     408:	00078513          	mv	a0,a5
     40c:	00178793          	addi	a5,a5,1
     410:	00470713          	addi	a4,a4,4
     414:	fef656e3          	bge	a2,a5,400 <generateSharpenKernel+0x4c>
     418:	00180813          	addi	a6,a6,1
     41c:	01180833          	add	a6,a6,a7
     420:	00a808b3          	add	a7,a6,a0
     424:	00c12783          	lw	a5,12(sp)
     428:	00068713          	mv	a4,a3
     42c:	fad7d6e3          	bge	a5,a3,3d8 <generateSharpenKernel+0x24>
     430:	01010113          	addi	sp,sp,16
     434:	00008067          	ret
     438:	00289613          	slli	a2,a7,0x2
     43c:	00c58633          	add	a2,a1,a2
     440:	0080006f          	j	448 <generateSharpenKernel+0x94>
     444:	00070793          	mv	a5,a4
     448:	00178713          	addi	a4,a5,1
     44c:	ffd77693          	andi	a3,a4,-3
     450:	0016b693          	seqz	a3,a3
     454:	40d006b3          	neg	a3,a3
     458:	00079663          	bnez	a5,464 <generateSharpenKernel+0xb0>
     45c:	00100713          	li	a4,1
     460:	00500693          	li	a3,5
     464:	00c12503          	lw	a0,12(sp)
     468:	00d62023          	sw	a3,0(a2)
     46c:	00460613          	addi	a2,a2,4
     470:	fce55ae3          	bge	a0,a4,444 <generateSharpenKernel+0x90>
     474:	00180813          	addi	a6,a6,1
     478:	01180833          	add	a6,a6,a7
     47c:	00f808b3          	add	a7,a6,a5
     480:	00100693          	li	a3,1
     484:	fa1ff06f          	j	424 <generateSharpenKernel+0x70>
     488:	00289613          	slli	a2,a7,0x2
     48c:	00c58633          	add	a2,a1,a2
     490:	0080006f          	j	498 <generateSharpenKernel+0xe4>
     494:	00070793          	mv	a5,a4
     498:	00178713          	addi	a4,a5,1
     49c:	ffd77313          	andi	t1,a4,-3
     4a0:	0017be13          	seqz	t3,a5
     4a4:	00000513          	li	a0,0
     4a8:	00030463          	beqz	t1,4b0 <generateSharpenKernel+0xfc>
     4ac:	41c00533          	neg	a0,t3
     4b0:	00c12303          	lw	t1,12(sp)
     4b4:	00a62023          	sw	a0,0(a2)
     4b8:	00460613          	addi	a2,a2,4
     4bc:	fce35ce3          	bge	t1,a4,494 <generateSharpenKernel+0xe0>
     4c0:	00180813          	addi	a6,a6,1
     4c4:	01180833          	add	a6,a6,a7
     4c8:	00f808b3          	add	a7,a6,a5
     4cc:	f59ff06f          	j	424 <generateSharpenKernel+0x70>
     4d0:	00170693          	addi	a3,a4,1
     4d4:	f51ff06f          	j	424 <generateSharpenKernel+0x70>
     4d8:	00100793          	li	a5,1
     4dc:	00f5a023          	sw	a5,0(a1)
     4e0:	01010113          	addi	sp,sp,16
     4e4:	00008067          	ret

000004e8 <blurringKernel>:
     4e8:	ff010113          	addi	sp,sp,-16
     4ec:	00112623          	sw	ra,12(sp)
     4f0:	00812423          	sw	s0,8(sp)
     4f4:	00912223          	sw	s1,4(sp)
     4f8:	01212023          	sw	s2,0(sp)
     4fc:	0ed05863          	blez	a3,5ec <blurringKernel+0x104>
     500:	00269693          	slli	a3,a3,0x2
     504:	00d58eb3          	add	t4,a1,a3
     508:	00000e13          	li	t3,0
     50c:	00000893          	li	a7,0
     510:	00000313          	li	t1,0
     514:	00054783          	lbu	a5,0(a0)
     518:	0005a683          	lw	a3,0(a1)
     51c:	00458593          	addi	a1,a1,4
     520:	0027d713          	srli	a4,a5,0x2
     524:	0037f813          	andi	a6,a5,3
     528:	00777713          	andi	a4,a4,7
     52c:	0057d793          	srli	a5,a5,0x5
     530:	02d80833          	mul	a6,a6,a3
     534:	00150513          	addi	a0,a0,1
     538:	02d70733          	mul	a4,a4,a3
     53c:	01030333          	add	t1,t1,a6
     540:	02d787b3          	mul	a5,a5,a3
     544:	00e888b3          	add	a7,a7,a4
     548:	00fe0e33          	add	t3,t3,a5
     54c:	fcbe94e3          	bne	t4,a1,514 <blurringKernel+0x2c>
     550:	01f65793          	srli	a5,a2,0x1f
     554:	00c787b3          	add	a5,a5,a2
     558:	4017d793          	srai	a5,a5,0x1
     55c:	00678333          	add	t1,a5,t1
     560:	02c345b3          	div	a1,t1,a2
     564:	011788b3          	add	a7,a5,a7
     568:	01c787b3          	add	a5,a5,t3
     56c:	00300513          	li	a0,3
     570:	02c8c433          	div	s0,a7,a2
     574:	02c7c4b3          	div	s1,a5,a2
     578:	160010ef          	jal	16d8 <min>
     57c:	00050593          	mv	a1,a0
     580:	00000513          	li	a0,0
     584:	168010ef          	jal	16ec <max>
     588:	00050913          	mv	s2,a0
     58c:	00040593          	mv	a1,s0
     590:	00700513          	li	a0,7
     594:	144010ef          	jal	16d8 <min>
     598:	00050593          	mv	a1,a0
     59c:	00000513          	li	a0,0
     5a0:	14c010ef          	jal	16ec <max>
     5a4:	00050413          	mv	s0,a0
     5a8:	00700513          	li	a0,7
     5ac:	00241413          	slli	s0,s0,0x2
     5b0:	00048593          	mv	a1,s1
     5b4:	124010ef          	jal	16d8 <min>
     5b8:	00050593          	mv	a1,a0
     5bc:	00000513          	li	a0,0
     5c0:	12c010ef          	jal	16ec <max>
     5c4:	00551513          	slli	a0,a0,0x5
     5c8:	00a40433          	add	s0,s0,a0
     5cc:	01240533          	add	a0,s0,s2
     5d0:	00c12083          	lw	ra,12(sp)
     5d4:	00812403          	lw	s0,8(sp)
     5d8:	00412483          	lw	s1,4(sp)
     5dc:	00012903          	lw	s2,0(sp)
     5e0:	0ff57513          	zext.b	a0,a0
     5e4:	01010113          	addi	sp,sp,16
     5e8:	00008067          	ret
     5ec:	00000e13          	li	t3,0
     5f0:	00000893          	li	a7,0
     5f4:	00000313          	li	t1,0
     5f8:	f59ff06f          	j	550 <blurringKernel+0x68>

000005fc <matrixGenerator>:
     5fc:	fe010113          	addi	sp,sp,-32
     600:	00112e23          	sw	ra,28(sp)
     604:	00c12623          	sw	a2,12(sp)
     608:	00400793          	li	a5,4
     60c:	1aa7ee63          	bltu	a5,a0,7c8 <matrixGenerator+0x1cc>
     610:	000277b7          	lui	a5,0x27
     614:	73c78793          	addi	a5,a5,1852 # 2773c <CSWTCH.11+0x28>
     618:	00251513          	slli	a0,a0,0x2
     61c:	00f50533          	add	a0,a0,a5
     620:	00052783          	lw	a5,0(a0)
     624:	00812c23          	sw	s0,24(sp)
     628:	00912a23          	sw	s1,20(sp)
     62c:	00070413          	mv	s0,a4
     630:	00068493          	mv	s1,a3
     634:	00078067          	jr	a5
     638:	00c12783          	lw	a5,12(sp)
     63c:	00000813          	li	a6,0
     640:	00100593          	li	a1,1
     644:	0407cc63          	bltz	a5,69c <matrixGenerator+0xa0>
     648:	00c12783          	lw	a5,12(sp)
     64c:	00000693          	li	a3,0
     650:	0207ce63          	bltz	a5,68c <matrixGenerator+0x90>
     654:	00c12783          	lw	a5,12(sp)
     658:	0f078a63          	beq	a5,a6,74c <matrixGenerator+0x150>
     65c:	00c12783          	lw	a5,12(sp)
     660:	00c12603          	lw	a2,12(sp)
     664:	00179793          	slli	a5,a5,0x1
     668:	00178793          	addi	a5,a5,1
     66c:	030787b3          	mul	a5,a5,a6
     670:	00161613          	slli	a2,a2,0x1
     674:	00d787b3          	add	a5,a5,a3
     678:	00279793          	slli	a5,a5,0x2
     67c:	00f407b3          	add	a5,s0,a5
     680:	0007a023          	sw	zero,0(a5)
     684:	00168693          	addi	a3,a3,1
     688:	fcd656e3          	bge	a2,a3,654 <matrixGenerator+0x58>
     68c:	00c12783          	lw	a5,12(sp)
     690:	00180813          	addi	a6,a6,1
     694:	00179793          	slli	a5,a5,0x1
     698:	fb07d8e3          	bge	a5,a6,648 <matrixGenerator+0x4c>
     69c:	00040513          	mv	a0,s0
     6a0:	01412483          	lw	s1,20(sp)
     6a4:	01812403          	lw	s0,24(sp)
     6a8:	01c12083          	lw	ra,28(sp)
     6ac:	02010113          	addi	sp,sp,32
     6b0:	00008067          	ret
     6b4:	00c12783          	lw	a5,12(sp)
     6b8:	00100713          	li	a4,1
     6bc:	0ee78663          	beq	a5,a4,7a8 <matrixGenerator+0x1ac>
     6c0:	00200713          	li	a4,2
     6c4:	0ce78a63          	beq	a5,a4,798 <matrixGenerator+0x19c>
     6c8:	06078a63          	beqz	a5,73c <matrixGenerator+0x140>
     6cc:	01812403          	lw	s0,24(sp)
     6d0:	01412483          	lw	s1,20(sp)
     6d4:	00000513          	li	a0,0
     6d8:	fd1ff06f          	j	6a8 <matrixGenerator+0xac>
     6dc:	00c12783          	lw	a5,12(sp)
     6e0:	00200713          	li	a4,2
     6e4:	0ce78a63          	beq	a5,a4,7b8 <matrixGenerator+0x1bc>
     6e8:	08f74c63          	blt	a4,a5,780 <matrixGenerator+0x184>
     6ec:	04078863          	beqz	a5,73c <matrixGenerator+0x140>
     6f0:	00100713          	li	a4,1
     6f4:	fce79ce3          	bne	a5,a4,6cc <matrixGenerator+0xd0>
     6f8:	00040513          	mv	a0,s0
     6fc:	02c010ef          	jal	1728 <staticGaussianKernel1>
     700:	00a4a023          	sw	a0,0(s1)
     704:	f99ff06f          	j	69c <matrixGenerator+0xa0>
     708:	00c12503          	lw	a0,12(sp)
     70c:	00070593          	mv	a1,a4
     710:	ca5ff0ef          	jal	3b4 <generateSharpenKernel>
     714:	f89ff06f          	j	69c <matrixGenerator+0xa0>
     718:	f8b052e3          	blez	a1,69c <matrixGenerator+0xa0>
     71c:	00259593          	slli	a1,a1,0x2
     720:	00070793          	mv	a5,a4
     724:	00100693          	li	a3,1
     728:	00e58733          	add	a4,a1,a4
     72c:	00d7a023          	sw	a3,0(a5)
     730:	00478793          	addi	a5,a5,4
     734:	fef71ce3          	bne	a4,a5,72c <matrixGenerator+0x130>
     738:	f65ff06f          	j	69c <matrixGenerator+0xa0>
     73c:	00040513          	mv	a0,s0
     740:	7d9000ef          	jal	1718 <staticKernel0>
     744:	00a4a023          	sw	a0,0(s1)
     748:	f55ff06f          	j	69c <matrixGenerator+0xa0>
     74c:	00c12783          	lw	a5,12(sp)
     750:	00c12703          	lw	a4,12(sp)
     754:	00179793          	slli	a5,a5,0x1
     758:	00178793          	addi	a5,a5,1
     75c:	030787b3          	mul	a5,a5,a6
     760:	00171713          	slli	a4,a4,0x1
     764:	00d787b3          	add	a5,a5,a3
     768:	00279793          	slli	a5,a5,0x2
     76c:	00f407b3          	add	a5,s0,a5
     770:	00b7a023          	sw	a1,0(a5)
     774:	00168693          	addi	a3,a3,1
     778:	ecd75ee3          	bge	a4,a3,654 <matrixGenerator+0x58>
     77c:	f11ff06f          	j	68c <matrixGenerator+0x90>
     780:	00300713          	li	a4,3
     784:	f4e794e3          	bne	a5,a4,6cc <matrixGenerator+0xd0>
     788:	00040513          	mv	a0,s0
     78c:	058010ef          	jal	17e4 <staticGaussianKernel3>
     790:	00a4a023          	sw	a0,0(s1)
     794:	f09ff06f          	j	69c <matrixGenerator+0xa0>
     798:	00040513          	mv	a0,s0
     79c:	18c010ef          	jal	1928 <staticEdgeDetectionKernel2>
     7a0:	00a4a023          	sw	a0,0(s1)
     7a4:	ef9ff06f          	j	69c <matrixGenerator+0xa0>
     7a8:	00040513          	mv	a0,s0
     7ac:	148010ef          	jal	18f4 <staticEdgeDetectionKernel1>
     7b0:	00a4a023          	sw	a0,0(s1)
     7b4:	ee9ff06f          	j	69c <matrixGenerator+0xa0>
     7b8:	00040513          	mv	a0,s0
     7bc:	7a5000ef          	jal	1760 <staticGaussianKernel2>
     7c0:	00a4a023          	sw	a0,0(s1)
     7c4:	ed9ff06f          	j	69c <matrixGenerator+0xa0>
     7c8:	00000513          	li	a0,0
     7cc:	eddff06f          	j	6a8 <matrixGenerator+0xac>

000007d0 <paddingKernel>:
     7d0:	fd010113          	addi	sp,sp,-48
     7d4:	00a12623          	sw	a0,12(sp)
     7d8:	02812623          	sw	s0,44(sp)
     7dc:	00c12403          	lw	s0,12(sp)
     7e0:	00c12783          	lw	a5,12(sp)
     7e4:	40f007b3          	neg	a5,a5
     7e8:	14f44863          	blt	s0,a5,938 <__heap_size+0x138>
     7ec:	408687b3          	sub	a5,a3,s0
     7f0:	03212223          	sw	s2,36(sp)
     7f4:	00070913          	mv	s2,a4
     7f8:	00279713          	slli	a4,a5,0x2
     7fc:	008682b3          	add	t0,a3,s0
     800:	00f70733          	add	a4,a4,a5
     804:	00671713          	slli	a4,a4,0x6
     808:	00229393          	slli	t2,t0,0x2
     80c:	00c70fb3          	add	t6,a4,a2
     810:	005383b3          	add	t2,t2,t0
     814:	02912423          	sw	s1,40(sp)
     818:	03312023          	sw	s3,32(sp)
     81c:	01412e23          	sw	s4,28(sp)
     820:	01512c23          	sw	s5,24(sp)
     824:	01f90fb3          	add	t6,s2,t6
     828:	00639393          	slli	t2,t2,0x6
     82c:	00000a13          	li	s4,0
     830:	0ef00493          	li	s1,239
     834:	13f00f13          	li	t5,319
     838:	00c909b3          	add	s3,s2,a2
     83c:	00c12303          	lw	t1,12(sp)
     840:	00c12683          	lw	a3,12(sp)
     844:	406007b3          	neg	a5,t1
     848:	0af6ce63          	blt	a3,a5,904 <__heap_size+0x104>
     84c:	0654f063          	bgeu	s1,t0,8ac <__heap_size+0xac>
     850:	0e54ce63          	blt	s1,t0,94c <__heap_size+0x14c>
     854:	00c30833          	add	a6,t1,a2
     858:	00e80833          	add	a6,a6,a4
     85c:	01612a23          	sw	s6,20(sp)
     860:	40660533          	sub	a0,a2,t1
     864:	01090833          	add	a6,s2,a6
     868:	01430e33          	add	t3,t1,s4
     86c:	13f00b13          	li	s6,319
     870:	02c0006f          	j	89c <__heap_size+0x9c>
     874:	0006ce83          	lbu	t4,0(a3)
     878:	00fe06b3          	add	a3,t3,a5
     87c:	00c12883          	lw	a7,12(sp)
     880:	00d586b3          	add	a3,a1,a3
     884:	00078a93          	mv	s5,a5
     888:	01d68023          	sb	t4,0(a3)
     88c:	00178793          	addi	a5,a5,1
     890:	00150513          	addi	a0,a0,1
     894:	fff80813          	addi	a6,a6,-1
     898:	10f8c263          	blt	a7,a5,99c <__heap_size+0x19c>
     89c:	00ff86b3          	add	a3,t6,a5
     8a0:	fcab7ae3          	bgeu	s6,a0,874 <__heap_size+0x74>
     8a4:	00084e83          	lbu	t4,0(a6)
     8a8:	fd1ff06f          	j	878 <__heap_size+0x78>
     8ac:	00c30833          	add	a6,t1,a2
     8b0:	00780833          	add	a6,a6,t2
     8b4:	40660533          	sub	a0,a2,t1
     8b8:	01090833          	add	a6,s2,a6
     8bc:	01430e33          	add	t3,t1,s4
     8c0:	08af4263          	blt	t5,a0,944 <__heap_size+0x144>
     8c4:	007986b3          	add	a3,s3,t2
     8c8:	00f686b3          	add	a3,a3,a5
     8cc:	06054c63          	bltz	a0,944 <__heap_size+0x144>
     8d0:	0006ce83          	lbu	t4,0(a3)
     8d4:	00fe06b3          	add	a3,t3,a5
     8d8:	00c12883          	lw	a7,12(sp)
     8dc:	00d586b3          	add	a3,a1,a3
     8e0:	00078a93          	mv	s5,a5
     8e4:	01d68023          	sb	t4,0(a3)
     8e8:	00178793          	addi	a5,a5,1
     8ec:	00150513          	addi	a0,a0,1
     8f0:	fff80813          	addi	a6,a6,-1
     8f4:	fcf8d6e3          	bge	a7,a5,8c0 <__heap_size+0xc0>
     8f8:	00130313          	addi	t1,t1,1
     8fc:	01430333          	add	t1,t1,s4
     900:	01530a33          	add	s4,t1,s5
     904:	00c12783          	lw	a5,12(sp)
     908:	fff40413          	addi	s0,s0,-1
     90c:	14070713          	addi	a4,a4,320
     910:	40f007b3          	neg	a5,a5
     914:	140f8f93          	addi	t6,t6,320
     918:	fff28293          	addi	t0,t0,-1
     91c:	ec038393          	addi	t2,t2,-320
     920:	f0f45ee3          	bge	s0,a5,83c <__heap_size+0x3c>
     924:	02812483          	lw	s1,40(sp)
     928:	02412903          	lw	s2,36(sp)
     92c:	02012983          	lw	s3,32(sp)
     930:	01c12a03          	lw	s4,28(sp)
     934:	01812a83          	lw	s5,24(sp)
     938:	02c12403          	lw	s0,44(sp)
     93c:	03010113          	addi	sp,sp,48
     940:	00008067          	ret
     944:	00084e83          	lbu	t4,0(a6)
     948:	f8dff06f          	j	8d4 <__heap_size+0xd4>
     94c:	00c30833          	add	a6,t1,a2
     950:	00e80833          	add	a6,a6,a4
     954:	40660533          	sub	a0,a2,t1
     958:	01090833          	add	a6,s2,a6
     95c:	01430e33          	add	t3,t1,s4
     960:	02c0006f          	j	98c <__heap_size+0x18c>
     964:	0006ce83          	lbu	t4,0(a3)
     968:	00fe06b3          	add	a3,t3,a5
     96c:	00c12883          	lw	a7,12(sp)
     970:	00d586b3          	add	a3,a1,a3
     974:	00078a93          	mv	s5,a5
     978:	01d68023          	sb	t4,0(a3)
     97c:	00178793          	addi	a5,a5,1
     980:	00150513          	addi	a0,a0,1
     984:	fff80813          	addi	a6,a6,-1
     988:	f6f8c8e3          	blt	a7,a5,8f8 <__heap_size+0xf8>
     98c:	00ff86b3          	add	a3,t6,a5
     990:	fcaf7ae3          	bgeu	t5,a0,964 <__heap_size+0x164>
     994:	00084e83          	lbu	t4,0(a6)
     998:	fd1ff06f          	j	968 <__heap_size+0x168>
     99c:	00130793          	addi	a5,t1,1
     9a0:	014787b3          	add	a5,a5,s4
     9a4:	01578a33          	add	s4,a5,s5
     9a8:	00c12783          	lw	a5,12(sp)
     9ac:	fff40413          	addi	s0,s0,-1
     9b0:	01412b03          	lw	s6,20(sp)
     9b4:	40f007b3          	neg	a5,a5
     9b8:	14070713          	addi	a4,a4,320
     9bc:	140f8f93          	addi	t6,t6,320
     9c0:	fff28293          	addi	t0,t0,-1
     9c4:	ec038393          	addi	t2,t2,-320
     9c8:	e6f45ae3          	bge	s0,a5,83c <__heap_size+0x3c>
     9cc:	f59ff06f          	j	924 <__heap_size+0x124>

000009d0 <calculate_led_value>:
     9d0:	ff010113          	addi	sp,sp,-16
     9d4:	00112623          	sw	ra,12(sp)
     9d8:	00812423          	sw	s0,8(sp)
     9dc:	00912223          	sw	s1,4(sp)
     9e0:	00058413          	mv	s0,a1
     9e4:	2c8010ef          	jal	1cac <__floatsidf>
     9e8:	00050493          	mv	s1,a0
     9ec:	00040513          	mv	a0,s0
     9f0:	00058413          	mv	s0,a1
     9f4:	2b8010ef          	jal	1cac <__floatsidf>
     9f8:	00050613          	mv	a2,a0
     9fc:	00058693          	mv	a3,a1
     a00:	00048513          	mv	a0,s1
     a04:	00040593          	mv	a1,s0
     a08:	79d000ef          	jal	19a4 <__divdf3>
     a0c:	000287b7          	lui	a5,0x28
     a10:	9187a603          	lw	a2,-1768(a5) # 27918 <CSWTCH.11+0x204>
     a14:	91c7a683          	lw	a3,-1764(a5)
     a18:	2d4010ef          	jal	1cec <__muldf3>
     a1c:	238010ef          	jal	1c54 <__fixdfsi>
     a20:	00c12083          	lw	ra,12(sp)
     a24:	00812403          	lw	s0,8(sp)
     a28:	00100793          	li	a5,1
     a2c:	00a79533          	sll	a0,a5,a0
     a30:	00412483          	lw	s1,4(sp)
     a34:	fff50513          	addi	a0,a0,-1
     a38:	01010113          	addi	sp,sp,16
     a3c:	00008067          	ret

00000a40 <startBenchmarking>:
     a40:	b0001073          	csrw	mcycle,zero
     a44:	b0201073          	csrw	minstret,zero
     a48:	b0301073          	csrw	mhpmcounter3,zero
     a4c:	b0401073          	csrw	mhpmcounter4,zero
     a50:	b0501073          	csrw	mhpmcounter5,zero
     a54:	b0601073          	csrw	mhpmcounter6,zero
     a58:	b0701073          	csrw	mhpmcounter7,zero
     a5c:	b0801073          	csrw	mhpmcounter8,zero
     a60:	b0901073          	csrw	mhpmcounter9,zero
     a64:	c0101073          	csrw	time,zero
     a68:	00008067          	ret

00000a6c <bechmarkResults>:
     a6c:	fd010113          	addi	sp,sp,-48
     a70:	02812423          	sw	s0,40(sp)
     a74:	02112623          	sw	ra,44(sp)
     a78:	02912223          	sw	s1,36(sp)
     a7c:	03212023          	sw	s2,32(sp)
     a80:	01312e23          	sw	s3,28(sp)
     a84:	01412c23          	sw	s4,24(sp)
     a88:	01512a23          	sw	s5,20(sp)
     a8c:	01612823          	sw	s6,16(sp)
     a90:	01712623          	sw	s7,12(sp)
     a94:	01812423          	sw	s8,8(sp)
     a98:	01912223          	sw	s9,4(sp)
     a9c:	00058413          	mv	s0,a1
     aa0:	b0002cf3          	csrr	s9,mcycle
     aa4:	b0202c73          	csrr	s8,minstret
     aa8:	b0302bf3          	csrr	s7,mhpmcounter3
     aac:	b0402b73          	csrr	s6,mhpmcounter4
     ab0:	b0502af3          	csrr	s5,mhpmcounter5
     ab4:	b0602a73          	csrr	s4,mhpmcounter6
     ab8:	b07029f3          	csrr	s3,mhpmcounter7
     abc:	b0802973          	csrr	s2,mhpmcounter8
     ac0:	b09024f3          	csrr	s1,mhpmcounter9
     ac4:	00400793          	li	a5,4
     ac8:	02a7e463          	bltu	a5,a0,af0 <bechmarkResults+0x84>
     acc:	000277b7          	lui	a5,0x27
     ad0:	00251513          	slli	a0,a0,0x2
     ad4:	75078793          	addi	a5,a5,1872 # 27750 <CSWTCH.11+0x3c>
     ad8:	00f507b3          	add	a5,a0,a5
     adc:	0007a783          	lw	a5,0(a5)
     ae0:	00078067          	jr	a5
     ae4:	00027537          	lui	a0,0x27
     ae8:	77850513          	addi	a0,a0,1912 # 27778 <CSWTCH.11+0x64>
     aec:	031000ef          	jal	131c <print>
     af0:	00027537          	lui	a0,0x27
     af4:	7c850513          	addi	a0,a0,1992 # 277c8 <CSWTCH.11+0xb4>
     af8:	025000ef          	jal	131c <print>
     afc:	00040513          	mv	a0,s0
     b00:	055000ef          	jal	1354 <print_dec>
     b04:	00027537          	lui	a0,0x27
     b08:	7d850513          	addi	a0,a0,2008 # 277d8 <CSWTCH.11+0xc4>
     b0c:	011000ef          	jal	131c <print>
     b10:	000c8513          	mv	a0,s9
     b14:	041000ef          	jal	1354 <print_dec>
     b18:	00027537          	lui	a0,0x27
     b1c:	7e450513          	addi	a0,a0,2020 # 277e4 <CSWTCH.11+0xd0>
     b20:	7fc000ef          	jal	131c <print>
     b24:	000c0513          	mv	a0,s8
     b28:	02d000ef          	jal	1354 <print_dec>
     b2c:	00027537          	lui	a0,0x27
     b30:	7f450513          	addi	a0,a0,2036 # 277f4 <CSWTCH.11+0xe0>
     b34:	7e8000ef          	jal	131c <print>
     b38:	000b8513          	mv	a0,s7
     b3c:	019000ef          	jal	1354 <print_dec>
     b40:	00028537          	lui	a0,0x28
     b44:	80c50513          	addi	a0,a0,-2036 # 2780c <CSWTCH.11+0xf8>
     b48:	7d4000ef          	jal	131c <print>
     b4c:	000b0513          	mv	a0,s6
     b50:	005000ef          	jal	1354 <print_dec>
     b54:	00028537          	lui	a0,0x28
     b58:	82050513          	addi	a0,a0,-2016 # 27820 <CSWTCH.11+0x10c>
     b5c:	7c0000ef          	jal	131c <print>
     b60:	000a8513          	mv	a0,s5
     b64:	7f0000ef          	jal	1354 <print_dec>
     b68:	00028537          	lui	a0,0x28
     b6c:	83450513          	addi	a0,a0,-1996 # 27834 <CSWTCH.11+0x120>
     b70:	7ac000ef          	jal	131c <print>
     b74:	000a0513          	mv	a0,s4
     b78:	7dc000ef          	jal	1354 <print_dec>
     b7c:	00028537          	lui	a0,0x28
     b80:	84850513          	addi	a0,a0,-1976 # 27848 <CSWTCH.11+0x134>
     b84:	798000ef          	jal	131c <print>
     b88:	00098513          	mv	a0,s3
     b8c:	7c8000ef          	jal	1354 <print_dec>
     b90:	00028537          	lui	a0,0x28
     b94:	85c50513          	addi	a0,a0,-1956 # 2785c <CSWTCH.11+0x148>
     b98:	784000ef          	jal	131c <print>
     b9c:	00090513          	mv	a0,s2
     ba0:	7b4000ef          	jal	1354 <print_dec>
     ba4:	00028537          	lui	a0,0x28
     ba8:	87450513          	addi	a0,a0,-1932 # 27874 <CSWTCH.11+0x160>
     bac:	770000ef          	jal	131c <print>
     bb0:	00048513          	mv	a0,s1
     bb4:	7a0000ef          	jal	1354 <print_dec>
     bb8:	02812403          	lw	s0,40(sp)
     bbc:	02c12083          	lw	ra,44(sp)
     bc0:	02412483          	lw	s1,36(sp)
     bc4:	02012903          	lw	s2,32(sp)
     bc8:	01c12983          	lw	s3,28(sp)
     bcc:	01812a03          	lw	s4,24(sp)
     bd0:	01412a83          	lw	s5,20(sp)
     bd4:	01012b03          	lw	s6,16(sp)
     bd8:	00c12b83          	lw	s7,12(sp)
     bdc:	00812c03          	lw	s8,8(sp)
     be0:	00412c83          	lw	s9,4(sp)
     be4:	00028537          	lui	a0,0x28
     be8:	88850513          	addi	a0,a0,-1912 # 27888 <CSWTCH.11+0x174>
     bec:	03010113          	addi	sp,sp,48
     bf0:	72c0006f          	j	131c <print>
     bf4:	00027537          	lui	a0,0x27
     bf8:	7a450513          	addi	a0,a0,1956 # 277a4 <CSWTCH.11+0x90>
     bfc:	720000ef          	jal	131c <print>
     c00:	ef1ff06f          	j	af0 <bechmarkResults+0x84>
     c04:	00027537          	lui	a0,0x27
     c08:	7b450513          	addi	a0,a0,1972 # 277b4 <CSWTCH.11+0xa0>
     c0c:	710000ef          	jal	131c <print>
     c10:	ee1ff06f          	j	af0 <bechmarkResults+0x84>
     c14:	00027537          	lui	a0,0x27
     c18:	78850513          	addi	a0,a0,1928 # 27788 <CSWTCH.11+0x74>
     c1c:	700000ef          	jal	131c <print>
     c20:	ed1ff06f          	j	af0 <bechmarkResults+0x84>
     c24:	00027537          	lui	a0,0x27
     c28:	79850513          	addi	a0,a0,1944 # 27798 <CSWTCH.11+0x84>
     c2c:	6f0000ef          	jal	131c <print>
     c30:	ec1ff06f          	j	af0 <bechmarkResults+0x84>

00000c34 <blurring>:
     c34:	f7010113          	addi	sp,sp,-144
     c38:	08812423          	sw	s0,136(sp)
     c3c:	08912223          	sw	s1,132(sp)
     c40:	09212023          	sw	s2,128(sp)
     c44:	07812423          	sw	s8,104(sp)
     c48:	08112623          	sw	ra,140(sp)
     c4c:	07312e23          	sw	s3,124(sp)
     c50:	07412c23          	sw	s4,120(sp)
     c54:	07512a23          	sw	s5,116(sp)
     c58:	07612823          	sw	s6,112(sp)
     c5c:	07712623          	sw	s7,108(sp)
     c60:	07912223          	sw	s9,100(sp)
     c64:	07a12023          	sw	s10,96(sp)
     c68:	05b12e23          	sw	s11,92(sp)
     c6c:	09010413          	addi	s0,sp,144
     c70:	00050493          	mv	s1,a0
     c74:	00058c13          	mv	s8,a1
     c78:	fac42623          	sw	a2,-84(s0)
     c7c:	00010913          	mv	s2,sp
     c80:	b0001073          	csrw	mcycle,zero
     c84:	b0201073          	csrw	minstret,zero
     c88:	b0301073          	csrw	mhpmcounter3,zero
     c8c:	b0401073          	csrw	mhpmcounter4,zero
     c90:	b0501073          	csrw	mhpmcounter5,zero
     c94:	b0601073          	csrw	mhpmcounter6,zero
     c98:	b0701073          	csrw	mhpmcounter7,zero
     c9c:	b0801073          	csrw	mhpmcounter8,zero
     ca0:	b0901073          	csrw	mhpmcounter9,zero
     ca4:	c0101073          	csrw	time,zero
     ca8:	fac42703          	lw	a4,-84(s0)
     cac:	fac42783          	lw	a5,-84(s0)
     cb0:	fac42603          	lw	a2,-84(s0)
     cb4:	00171713          	slli	a4,a4,0x1
     cb8:	00179793          	slli	a5,a5,0x1
     cbc:	00170713          	addi	a4,a4,1
     cc0:	00178793          	addi	a5,a5,1
     cc4:	02f705b3          	mul	a1,a4,a5
     cc8:	fbc40693          	addi	a3,s0,-68
     ccc:	000c0513          	mv	a0,s8
     cd0:	fa042e23          	sw	zero,-68(s0)
     cd4:	00259a93          	slli	s5,a1,0x2
     cd8:	00fa8793          	addi	a5,s5,15
     cdc:	ff07f793          	andi	a5,a5,-16
     ce0:	40f10133          	sub	sp,sp,a5
     ce4:	00010a13          	mv	s4,sp
     ce8:	000a0713          	mv	a4,s4
     cec:	00058993          	mv	s3,a1
     cf0:	fab42023          	sw	a1,-96(s0)
     cf4:	f9442e23          	sw	s4,-100(s0)
     cf8:	905ff0ef          	jal	5fc <matrixGenerator>
     cfc:	54050a63          	beqz	a0,1250 <blurring+0x61c>
     d00:	00028737          	lui	a4,0x28
     d04:	92072683          	lw	a3,-1760(a4) # 27920 <CSWTCH.11+0x20c>
     d08:	92472703          	lw	a4,-1756(a4)
     d0c:	000277b7          	lui	a5,0x27
     d10:	f8d42023          	sw	a3,-128(s0)
     d14:	f8e42223          	sw	a4,-124(s0)
     d18:	00028737          	lui	a4,0x28
     d1c:	91872683          	lw	a3,-1768(a4) # 27918 <CSWTCH.11+0x204>
     d20:	91c72703          	lw	a4,-1764(a4)
     d24:	002c1c93          	slli	s9,s8,0x2
     d28:	76478793          	addi	a5,a5,1892 # 27764 <CSWTCH.11+0x50>
     d2c:	00fc8cb3          	add	s9,s9,a5
     d30:	00013d37          	lui	s10,0x13
     d34:	c00d0d13          	addi	s10,s10,-1024 # 12c00 <LoadingOutput_bmp+0x10d08>
     d38:	000c8793          	mv	a5,s9
     d3c:	f6e42e23          	sw	a4,-132(s0)
     d40:	00f98713          	addi	a4,s3,15
     d44:	014a8ab3          	add	s5,s5,s4
     d48:	000c0c93          	mv	s9,s8
     d4c:	f6d42c23          	sw	a3,-136(s0)
     d50:	000d0c13          	mv	s8,s10
     d54:	00000a13          	li	s4,0
     d58:	f8e42423          	sw	a4,-120(s0)
     d5c:	00027db7          	lui	s11,0x27
     d60:	f7242a23          	sw	s2,-140(s0)
     d64:	00078d13          	mv	s10,a5
     d68:	f8842783          	lw	a5,-120(s0)
     d6c:	000139b7          	lui	s3,0x13
     d70:	c0098993          	addi	s3,s3,-1024 # 12c00 <LoadingOutput_bmp+0x10d08>
     d74:	ff07f793          	andi	a5,a5,-16
     d78:	418989b3          	sub	s3,s3,s8
     d7c:	000c0913          	mv	s2,s8
     d80:	f9842623          	sw	s8,-116(s0)
     d84:	00000b93          	li	s7,0
     d88:	faf42223          	sw	a5,-92(s0)
     d8c:	14000b13          	li	s6,320
     d90:	00048c13          	mv	s8,s1
     d94:	fa442703          	lw	a4,-92(s0)
     d98:	fac42783          	lw	a5,-84(s0)
     d9c:	fa242423          	sw	sp,-88(s0)
     da0:	40e10133          	sub	sp,sp,a4
     da4:	00010493          	mv	s1,sp
     da8:	02fbc463          	blt	s7,a5,dd0 <blurring+0x19c>
     dac:	fac42783          	lw	a5,-84(s0)
     db0:	02fa4063          	blt	s4,a5,dd0 <blurring+0x19c>
     db4:	fac42783          	lw	a5,-84(s0)
     db8:	40fb07b3          	sub	a5,s6,a5
     dbc:	00fbda63          	bge	s7,a5,dd0 <blurring+0x19c>
     dc0:	fac42683          	lw	a3,-84(s0)
     dc4:	0f000793          	li	a5,240
     dc8:	40d787b3          	sub	a5,a5,a3
     dcc:	4cfa4c63          	blt	s4,a5,12a4 <blurring+0x670>
     dd0:	fac42503          	lw	a0,-84(s0)
     dd4:	000c0713          	mv	a4,s8
     dd8:	000a0693          	mv	a3,s4
     ddc:	000b8613          	mv	a2,s7
     de0:	00048593          	mv	a1,s1
     de4:	9edff0ef          	jal	7d0 <paddingKernel>
     de8:	00400793          	li	a5,4
     dec:	3f97e263          	bltu	a5,s9,11d0 <blurring+0x59c>
     df0:	000d2783          	lw	a5,0(s10)
     df4:	00078067          	jr	a5
     df8:	00048513          	mv	a0,s1
     dfc:	fac42603          	lw	a2,-84(s0)
     e00:	710da783          	lw	a5,1808(s11) # 27710 <VGA>
     e04:	fa042683          	lw	a3,-96(s0)
     e08:	f9c42583          	lw	a1,-100(s0)
     e0c:	00161613          	slli	a2,a2,0x1
     e10:	00160613          	addi	a2,a2,1
     e14:	012784b3          	add	s1,a5,s2
     e18:	ed0ff0ef          	jal	4e8 <blurringKernel>
     e1c:	00a48023          	sb	a0,0(s1)
     e20:	001b8b93          	addi	s7,s7,1
     e24:	00190913          	addi	s2,s2,1
     e28:	00198993          	addi	s3,s3,1
     e2c:	fa842103          	lw	sp,-88(s0)
     e30:	3b6b8a63          	beq	s7,s6,11e4 <blurring+0x5b0>
     e34:	fa442703          	lw	a4,-92(s0)
     e38:	fac42783          	lw	a5,-84(s0)
     e3c:	40e10133          	sub	sp,sp,a4
     e40:	00010513          	mv	a0,sp
     e44:	02fbc463          	blt	s7,a5,e6c <blurring+0x238>
     e48:	fac42783          	lw	a5,-84(s0)
     e4c:	02fa4063          	blt	s4,a5,e6c <blurring+0x238>
     e50:	fac42783          	lw	a5,-84(s0)
     e54:	40fb07b3          	sub	a5,s6,a5
     e58:	00fbda63          	bge	s7,a5,e6c <blurring+0x238>
     e5c:	fac42703          	lw	a4,-84(s0)
     e60:	0f000793          	li	a5,240
     e64:	40e787b3          	sub	a5,a5,a4
     e68:	34fa4a63          	blt	s4,a5,11bc <blurring+0x588>
     e6c:	00050493          	mv	s1,a0
     e70:	f61ff06f          	j	dd0 <blurring+0x19c>
     e74:	000c8713          	mv	a4,s9
     e78:	000d0813          	mv	a6,s10
     e7c:	000a0c93          	mv	s9,s4
     e80:	000c0d13          	mv	s10,s8
     e84:	00090a13          	mv	s4,s2
     e88:	00098c13          	mv	s8,s3
     e8c:	710da983          	lw	s3,1808(s11)
     e90:	fa042783          	lw	a5,-96(s0)
     e94:	014989b3          	add	s3,s3,s4
     e98:	3ef05e63          	blez	a5,1294 <blurring+0x660>
     e9c:	f9c42683          	lw	a3,-100(s0)
     ea0:	00000913          	li	s2,0
     ea4:	00000893          	li	a7,0
     ea8:	00000593          	li	a1,0
     eac:	0004c783          	lbu	a5,0(s1)
     eb0:	0006a503          	lw	a0,0(a3)
     eb4:	00468693          	addi	a3,a3,4
     eb8:	0027d613          	srli	a2,a5,0x2
     ebc:	0037f313          	andi	t1,a5,3
     ec0:	00767613          	andi	a2,a2,7
     ec4:	0057d793          	srli	a5,a5,0x5
     ec8:	02a30333          	mul	t1,t1,a0
     ecc:	00148493          	addi	s1,s1,1
     ed0:	02a60633          	mul	a2,a2,a0
     ed4:	006585b3          	add	a1,a1,t1
     ed8:	02a787b3          	mul	a5,a5,a0
     edc:	00c888b3          	add	a7,a7,a2
     ee0:	00f90933          	add	s2,s2,a5
     ee4:	fcda94e3          	bne	s5,a3,eac <blurring+0x278>
     ee8:	00300513          	li	a0,3
     eec:	f9042823          	sw	a6,-112(s0)
     ef0:	f8e42a23          	sw	a4,-108(s0)
     ef4:	f9142c23          	sw	a7,-104(s0)
     ef8:	7e0000ef          	jal	16d8 <min>
     efc:	00050593          	mv	a1,a0
     f00:	00000513          	li	a0,0
     f04:	7e8000ef          	jal	16ec <max>
     f08:	f9842883          	lw	a7,-104(s0)
     f0c:	00050793          	mv	a5,a0
     f10:	00700513          	li	a0,7
     f14:	00088593          	mv	a1,a7
     f18:	f8f42c23          	sw	a5,-104(s0)
     f1c:	7bc000ef          	jal	16d8 <min>
     f20:	00050593          	mv	a1,a0
     f24:	00000513          	li	a0,0
     f28:	7c4000ef          	jal	16ec <max>
     f2c:	00050493          	mv	s1,a0
     f30:	00090593          	mv	a1,s2
     f34:	00700513          	li	a0,7
     f38:	7a0000ef          	jal	16d8 <min>
     f3c:	00050593          	mv	a1,a0
     f40:	00000513          	li	a0,0
     f44:	7a8000ef          	jal	16ec <max>
     f48:	f9842783          	lw	a5,-104(s0)
     f4c:	00249493          	slli	s1,s1,0x2
     f50:	00551513          	slli	a0,a0,0x5
     f54:	00a484b3          	add	s1,s1,a0
     f58:	00f487b3          	add	a5,s1,a5
     f5c:	0ff7f793          	zext.b	a5,a5
     f60:	00f98023          	sb	a5,0(s3)
     f64:	001b8b93          	addi	s7,s7,1
     f68:	001a0a13          	addi	s4,s4,1
     f6c:	001c0c13          	addi	s8,s8,1
     f70:	fa842103          	lw	sp,-88(s0)
     f74:	f9442703          	lw	a4,-108(s0)
     f78:	f9042803          	lw	a6,-112(s0)
     f7c:	376b8463          	beq	s7,s6,12e4 <blurring+0x6b0>
     f80:	fa442683          	lw	a3,-92(s0)
     f84:	fac42783          	lw	a5,-84(s0)
     f88:	40d10133          	sub	sp,sp,a3
     f8c:	00010493          	mv	s1,sp
     f90:	02fbc463          	blt	s7,a5,fb8 <blurring+0x384>
     f94:	fac42783          	lw	a5,-84(s0)
     f98:	02fcc063          	blt	s9,a5,fb8 <blurring+0x384>
     f9c:	fac42783          	lw	a5,-84(s0)
     fa0:	40fb07b3          	sub	a5,s6,a5
     fa4:	00fbda63          	bge	s7,a5,fb8 <blurring+0x384>
     fa8:	fac42683          	lw	a3,-84(s0)
     fac:	0f000793          	li	a5,240
     fb0:	40d787b3          	sub	a5,a5,a3
     fb4:	30fcc263          	blt	s9,a5,12b8 <blurring+0x684>
     fb8:	000c0993          	mv	s3,s8
     fbc:	000a0913          	mv	s2,s4
     fc0:	000d0c13          	mv	s8,s10
     fc4:	000c8a13          	mv	s4,s9
     fc8:	00080d13          	mv	s10,a6
     fcc:	00070c93          	mv	s9,a4
     fd0:	e01ff06f          	j	dd0 <blurring+0x19c>
     fd4:	00048513          	mv	a0,s1
     fd8:	710da783          	lw	a5,1808(s11)
     fdc:	fbc42603          	lw	a2,-68(s0)
     fe0:	fa042683          	lw	a3,-96(s0)
     fe4:	f9c42583          	lw	a1,-100(s0)
     fe8:	012784b3          	add	s1,a5,s2
     fec:	001b8b93          	addi	s7,s7,1
     ff0:	cf8ff0ef          	jal	4e8 <blurringKernel>
     ff4:	00a48023          	sb	a0,0(s1)
     ff8:	00190913          	addi	s2,s2,1
     ffc:	00198993          	addi	s3,s3,1
    1000:	fa842103          	lw	sp,-88(s0)
    1004:	1f6b8063          	beq	s7,s6,11e4 <blurring+0x5b0>
    1008:	fa442703          	lw	a4,-92(s0)
    100c:	fac42783          	lw	a5,-84(s0)
    1010:	40e10133          	sub	sp,sp,a4
    1014:	00010513          	mv	a0,sp
    1018:	e4fbcae3          	blt	s7,a5,e6c <blurring+0x238>
    101c:	fac42783          	lw	a5,-84(s0)
    1020:	e4fa46e3          	blt	s4,a5,e6c <blurring+0x238>
    1024:	fac42783          	lw	a5,-84(s0)
    1028:	40fb07b3          	sub	a5,s6,a5
    102c:	e4fbd0e3          	bge	s7,a5,e6c <blurring+0x238>
    1030:	fac42703          	lw	a4,-84(s0)
    1034:	0f000793          	li	a5,240
    1038:	40e787b3          	sub	a5,a5,a4
    103c:	e2fa58e3          	bge	s4,a5,e6c <blurring+0x238>
    1040:	fac42603          	lw	a2,-84(s0)
    1044:	fac42783          	lw	a5,-84(s0)
    1048:	40c00633          	neg	a2,a2
    104c:	f8c7c6e3          	blt	a5,a2,fd8 <blurring+0x3a4>
    1050:	00050493          	mv	s1,a0
    1054:	00261593          	slli	a1,a2,0x2
    1058:	00c585b3          	add	a1,a1,a2
    105c:	00659593          	slli	a1,a1,0x6
    1060:	00000793          	li	a5,0
    1064:	fac42803          	lw	a6,-84(s0)
    1068:	fac42703          	lw	a4,-84(s0)
    106c:	410008b3          	neg	a7,a6
    1070:	03174c63          	blt	a4,a7,10a8 <blurring+0x474>
    1074:	41098833          	sub	a6,s3,a6
    1078:	00b80833          	add	a6,a6,a1
    107c:	40f888b3          	sub	a7,a7,a5
    1080:	40f80833          	sub	a6,a6,a5
    1084:	00f80733          	add	a4,a6,a5
    1088:	00ec0733          	add	a4,s8,a4
    108c:	00074503          	lbu	a0,0(a4)
    1090:	fac42683          	lw	a3,-84(s0)
    1094:	00f48733          	add	a4,s1,a5
    1098:	00178793          	addi	a5,a5,1
    109c:	00a70023          	sb	a0,0(a4)
    10a0:	00f88733          	add	a4,a7,a5
    10a4:	fee6d0e3          	bge	a3,a4,1084 <blurring+0x450>
    10a8:	fac42703          	lw	a4,-84(s0)
    10ac:	00160613          	addi	a2,a2,1
    10b0:	14058593          	addi	a1,a1,320
    10b4:	fac758e3          	bge	a4,a2,1064 <blurring+0x430>
    10b8:	d31ff06f          	j	de8 <blurring+0x1b4>
    10bc:	00048513          	mv	a0,s1
    10c0:	fa042683          	lw	a3,-96(s0)
    10c4:	710da783          	lw	a5,1808(s11)
    10c8:	f9c42583          	lw	a1,-100(s0)
    10cc:	00068613          	mv	a2,a3
    10d0:	012784b3          	add	s1,a5,s2
    10d4:	c14ff0ef          	jal	4e8 <blurringKernel>
    10d8:	00a48023          	sb	a0,0(s1)
    10dc:	001b8b93          	addi	s7,s7,1
    10e0:	00190913          	addi	s2,s2,1
    10e4:	00198993          	addi	s3,s3,1
    10e8:	fa842103          	lw	sp,-88(s0)
    10ec:	0f6b8c63          	beq	s7,s6,11e4 <blurring+0x5b0>
    10f0:	fa442703          	lw	a4,-92(s0)
    10f4:	fac42783          	lw	a5,-84(s0)
    10f8:	40e10133          	sub	sp,sp,a4
    10fc:	00010513          	mv	a0,sp
    1100:	d6fbc6e3          	blt	s7,a5,e6c <blurring+0x238>
    1104:	fac42783          	lw	a5,-84(s0)
    1108:	d6fa42e3          	blt	s4,a5,e6c <blurring+0x238>
    110c:	fac42783          	lw	a5,-84(s0)
    1110:	40fb07b3          	sub	a5,s6,a5
    1114:	d4fbdce3          	bge	s7,a5,e6c <blurring+0x238>
    1118:	fac42703          	lw	a4,-84(s0)
    111c:	0f000793          	li	a5,240
    1120:	40e787b3          	sub	a5,a5,a4
    1124:	d4fa54e3          	bge	s4,a5,e6c <blurring+0x238>
    1128:	fac42603          	lw	a2,-84(s0)
    112c:	fac42783          	lw	a5,-84(s0)
    1130:	40c00633          	neg	a2,a2
    1134:	f0c7dee3          	bge	a5,a2,1050 <blurring+0x41c>
    1138:	f89ff06f          	j	10c0 <blurring+0x48c>
    113c:	00048513          	mv	a0,s1
    1140:	710da783          	lw	a5,1808(s11)
    1144:	fbc42603          	lw	a2,-68(s0)
    1148:	fa042683          	lw	a3,-96(s0)
    114c:	f9c42583          	lw	a1,-100(s0)
    1150:	012784b3          	add	s1,a5,s2
    1154:	001b8b93          	addi	s7,s7,1
    1158:	b90ff0ef          	jal	4e8 <blurringKernel>
    115c:	00a48023          	sb	a0,0(s1)
    1160:	00190913          	addi	s2,s2,1
    1164:	00198993          	addi	s3,s3,1
    1168:	fa842103          	lw	sp,-88(s0)
    116c:	076b8c63          	beq	s7,s6,11e4 <blurring+0x5b0>
    1170:	fa442703          	lw	a4,-92(s0)
    1174:	fac42783          	lw	a5,-84(s0)
    1178:	40e10133          	sub	sp,sp,a4
    117c:	00010513          	mv	a0,sp
    1180:	cefbc6e3          	blt	s7,a5,e6c <blurring+0x238>
    1184:	fac42783          	lw	a5,-84(s0)
    1188:	cefa42e3          	blt	s4,a5,e6c <blurring+0x238>
    118c:	fac42783          	lw	a5,-84(s0)
    1190:	40fb07b3          	sub	a5,s6,a5
    1194:	ccfbdce3          	bge	s7,a5,e6c <blurring+0x238>
    1198:	fac42703          	lw	a4,-84(s0)
    119c:	0f000793          	li	a5,240
    11a0:	40e787b3          	sub	a5,a5,a4
    11a4:	ccfa54e3          	bge	s4,a5,e6c <blurring+0x238>
    11a8:	fac42603          	lw	a2,-84(s0)
    11ac:	fac42783          	lw	a5,-84(s0)
    11b0:	40c00633          	neg	a2,a2
    11b4:	e8c7dee3          	bge	a5,a2,1050 <blurring+0x41c>
    11b8:	f89ff06f          	j	1140 <blurring+0x50c>
    11bc:	fac42603          	lw	a2,-84(s0)
    11c0:	fac42783          	lw	a5,-84(s0)
    11c4:	40c00633          	neg	a2,a2
    11c8:	e8c7d4e3          	bge	a5,a2,1050 <blurring+0x41c>
    11cc:	c31ff06f          	j	dfc <blurring+0x1c8>
    11d0:	001b8b93          	addi	s7,s7,1
    11d4:	00190913          	addi	s2,s2,1
    11d8:	00198993          	addi	s3,s3,1
    11dc:	fa842103          	lw	sp,-88(s0)
    11e0:	bb6b9ae3          	bne	s7,s6,d94 <blurring+0x160>
    11e4:	000c0493          	mv	s1,s8
    11e8:	f8c42c03          	lw	s8,-116(s0)
    11ec:	000a0513          	mv	a0,s4
    11f0:	2bd000ef          	jal	1cac <__floatsidf>
    11f4:	f8042603          	lw	a2,-128(s0)
    11f8:	f8442683          	lw	a3,-124(s0)
    11fc:	001a0a13          	addi	s4,s4,1
    1200:	ec0c0c13          	addi	s8,s8,-320
    1204:	7a0000ef          	jal	19a4 <__divdf3>
    1208:	f7842603          	lw	a2,-136(s0)
    120c:	f7c42683          	lw	a3,-132(s0)
    1210:	2dd000ef          	jal	1cec <__muldf3>
    1214:	241000ef          	jal	1c54 <__fixdfsi>
    1218:	00100793          	li	a5,1
    121c:	00a797b3          	sll	a5,a5,a0
    1220:	fff78793          	addi	a5,a5,-1
    1224:	3ff7f793          	andi	a5,a5,1023
    1228:	04000737          	lui	a4,0x4000
    122c:	00f72023          	sw	a5,0(a4) # 4000000 <_stack_end+0x3ed86d0>
    1230:	0f000793          	li	a5,240
    1234:	b2fa1ae3          	bne	s4,a5,d68 <blurring+0x134>
    1238:	3ff00793          	li	a5,1023
    123c:	f7442903          	lw	s2,-140(s0)
    1240:	00f72023          	sw	a5,0(a4)
    1244:	fac42583          	lw	a1,-84(s0)
    1248:	000c8513          	mv	a0,s9
    124c:	821ff0ef          	jal	a6c <bechmarkResults>
    1250:	00090113          	mv	sp,s2
    1254:	f7040113          	addi	sp,s0,-144
    1258:	08c12083          	lw	ra,140(sp)
    125c:	08812403          	lw	s0,136(sp)
    1260:	08412483          	lw	s1,132(sp)
    1264:	08012903          	lw	s2,128(sp)
    1268:	07c12983          	lw	s3,124(sp)
    126c:	07812a03          	lw	s4,120(sp)
    1270:	07412a83          	lw	s5,116(sp)
    1274:	07012b03          	lw	s6,112(sp)
    1278:	06c12b83          	lw	s7,108(sp)
    127c:	06812c03          	lw	s8,104(sp)
    1280:	06412c83          	lw	s9,100(sp)
    1284:	06012d03          	lw	s10,96(sp)
    1288:	05c12d83          	lw	s11,92(sp)
    128c:	09010113          	addi	sp,sp,144
    1290:	00008067          	ret
    1294:	00000913          	li	s2,0
    1298:	00000893          	li	a7,0
    129c:	00000593          	li	a1,0
    12a0:	c49ff06f          	j	ee8 <blurring+0x2b4>
    12a4:	fac42603          	lw	a2,-84(s0)
    12a8:	fac42783          	lw	a5,-84(s0)
    12ac:	40c00633          	neg	a2,a2
    12b0:	dac7d2e3          	bge	a5,a2,1054 <blurring+0x420>
    12b4:	b35ff06f          	j	de8 <blurring+0x1b4>
    12b8:	fac42603          	lw	a2,-84(s0)
    12bc:	fac42783          	lw	a5,-84(s0)
    12c0:	40c00633          	neg	a2,a2
    12c4:	bcc7c4e3          	blt	a5,a2,e8c <blurring+0x258>
    12c8:	000c0993          	mv	s3,s8
    12cc:	000a0913          	mv	s2,s4
    12d0:	000d0c13          	mv	s8,s10
    12d4:	000c8a13          	mv	s4,s9
    12d8:	00080d13          	mv	s10,a6
    12dc:	00070c93          	mv	s9,a4
    12e0:	d75ff06f          	j	1054 <blurring+0x420>
    12e4:	000c8a13          	mv	s4,s9
    12e8:	000d0493          	mv	s1,s10
    12ec:	f8c42c03          	lw	s8,-116(s0)
    12f0:	00070c93          	mv	s9,a4
    12f4:	00080d13          	mv	s10,a6
    12f8:	ef5ff06f          	j	11ec <blurring+0x5b8>

000012fc <printc>:
    12fc:	04000737          	lui	a4,0x4000
    1300:	04470713          	addi	a4,a4,68 # 4000044 <_stack_end+0x3ed8714>
    1304:	000106b7          	lui	a3,0x10
    1308:	00072783          	lw	a5,0(a4)
    130c:	fed7eee3          	bltu	a5,a3,1308 <printc+0xc>
    1310:	040007b7          	lui	a5,0x4000
    1314:	04a7a023          	sw	a0,64(a5) # 4000040 <_stack_end+0x3ed8710>
    1318:	00008067          	ret

0000131c <print>:
    131c:	00054603          	lbu	a2,0(a0)
    1320:	02060863          	beqz	a2,1350 <print+0x34>
    1324:	04000737          	lui	a4,0x4000
    1328:	040005b7          	lui	a1,0x4000
    132c:	04470713          	addi	a4,a4,68 # 4000044 <_stack_end+0x3ed8714>
    1330:	000106b7          	lui	a3,0x10
    1334:	04058593          	addi	a1,a1,64 # 4000040 <_stack_end+0x3ed8710>
    1338:	00072783          	lw	a5,0(a4)
    133c:	fed7eee3          	bltu	a5,a3,1338 <print+0x1c>
    1340:	00c5a023          	sw	a2,0(a1)
    1344:	00154603          	lbu	a2,1(a0)
    1348:	00150513          	addi	a0,a0,1
    134c:	fe0616e3          	bnez	a2,1338 <print+0x1c>
    1350:	00008067          	ret

00001354 <print_dec>:
    1354:	3b9ad737          	lui	a4,0x3b9ad
    1358:	040006b7          	lui	a3,0x4000
    135c:	04000337          	lui	t1,0x4000
    1360:	00a00593          	li	a1,10
    1364:	00000793          	li	a5,0
    1368:	a0070713          	addi	a4,a4,-1536 # 3b9aca00 <_stack_end+0x3b8850d0>
    136c:	04468693          	addi	a3,a3,68 # 4000044 <_stack_end+0x3ed8714>
    1370:	00010637          	lui	a2,0x10
    1374:	04030313          	addi	t1,t1,64 # 4000040 <_stack_end+0x3ed8710>
    1378:	00a00893          	li	a7,10
    137c:	04e57063          	bgeu	a0,a4,13bc <print_dec+0x68>
    1380:	02079e63          	bnez	a5,13bc <print_dec+0x68>
    1384:	fff58593          	addi	a1,a1,-1
    1388:	02e57533          	remu	a0,a0,a4
    138c:	03175733          	divu	a4,a4,a7
    1390:	fe0596e3          	bnez	a1,137c <print_dec+0x28>
    1394:	02079263          	bnez	a5,13b8 <print_dec+0x64>
    1398:	04000737          	lui	a4,0x4000
    139c:	04470713          	addi	a4,a4,68 # 4000044 <_stack_end+0x3ed8714>
    13a0:	000106b7          	lui	a3,0x10
    13a4:	00072783          	lw	a5,0(a4)
    13a8:	fed7eee3          	bltu	a5,a3,13a4 <print_dec+0x50>
    13ac:	040007b7          	lui	a5,0x4000
    13b0:	03000713          	li	a4,48
    13b4:	04e7a023          	sw	a4,64(a5) # 4000040 <_stack_end+0x3ed8710>
    13b8:	00008067          	ret
    13bc:	02e55833          	divu	a6,a0,a4
    13c0:	03080813          	addi	a6,a6,48
    13c4:	0ff87813          	zext.b	a6,a6
    13c8:	0006a783          	lw	a5,0(a3) # 10000 <LoadingOutput_bmp+0xe108>
    13cc:	fec7eee3          	bltu	a5,a2,13c8 <print_dec+0x74>
    13d0:	01032023          	sw	a6,0(t1)
    13d4:	00100793          	li	a5,1
    13d8:	fadff06f          	j	1384 <print_dec+0x30>

000013dc <print_hex32>:
    13dc:	04000737          	lui	a4,0x4000
    13e0:	04470713          	addi	a4,a4,68 # 4000044 <_stack_end+0x3ed8714>
    13e4:	000106b7          	lui	a3,0x10
    13e8:	00072783          	lw	a5,0(a4)
    13ec:	fed7eee3          	bltu	a5,a3,13e8 <print_hex32+0xc>
    13f0:	03000693          	li	a3,48
    13f4:	040007b7          	lui	a5,0x4000
    13f8:	04000737          	lui	a4,0x4000
    13fc:	04d7a023          	sw	a3,64(a5) # 4000040 <_stack_end+0x3ed8710>
    1400:	04470713          	addi	a4,a4,68 # 4000044 <_stack_end+0x3ed8714>
    1404:	000106b7          	lui	a3,0x10
    1408:	00072783          	lw	a5,0(a4)
    140c:	fed7eee3          	bltu	a5,a3,1408 <print_hex32+0x2c>
    1410:	04000837          	lui	a6,0x4000
    1414:	04080813          	addi	a6,a6,64 # 4000040 <_stack_end+0x3ed8710>
    1418:	04000737          	lui	a4,0x4000
    141c:	07800793          	li	a5,120
    1420:	00f82023          	sw	a5,0(a6)
    1424:	01c00613          	li	a2,28
    1428:	00900313          	li	t1,9
    142c:	04470713          	addi	a4,a4,68 # 4000044 <_stack_end+0x3ed8714>
    1430:	000106b7          	lui	a3,0x10
    1434:	ffc00893          	li	a7,-4
    1438:	00c557b3          	srl	a5,a0,a2
    143c:	00f7f793          	andi	a5,a5,15
    1440:	03778593          	addi	a1,a5,55
    1444:	00f36463          	bltu	t1,a5,144c <print_hex32+0x70>
    1448:	03078593          	addi	a1,a5,48
    144c:	00072783          	lw	a5,0(a4)
    1450:	fed7eee3          	bltu	a5,a3,144c <print_hex32+0x70>
    1454:	00b82023          	sw	a1,0(a6)
    1458:	ffc60613          	addi	a2,a2,-4 # fffc <LoadingOutput_bmp+0xe104>
    145c:	fd161ee3          	bne	a2,a7,1438 <print_hex32+0x5c>
    1460:	00008067          	ret

00001464 <handle_exception>:
    1464:	00200793          	li	a5,2
    1468:	18f80863          	beq	a6,a5,15f8 <handle_exception+0x194>
    146c:	00b00793          	li	a5,11
    1470:	12f80063          	beq	a6,a5,1590 <handle_exception+0x12c>
    1474:	04000737          	lui	a4,0x4000
    1478:	14081463          	bnez	a6,15c0 <handle_exception+0x15c>
    147c:	04000837          	lui	a6,0x4000
    1480:	00028637          	lui	a2,0x28
    1484:	88c60613          	addi	a2,a2,-1908 # 2788c <CSWTCH.11+0x178>
    1488:	00a00593          	li	a1,10
    148c:	04470713          	addi	a4,a4,68 # 4000044 <_stack_end+0x3ed8714>
    1490:	000106b7          	lui	a3,0x10
    1494:	04080813          	addi	a6,a6,64 # 4000040 <_stack_end+0x3ed8710>
    1498:	00072783          	lw	a5,0(a4)
    149c:	fed7eee3          	bltu	a5,a3,1498 <handle_exception+0x34>
    14a0:	00b82023          	sw	a1,0(a6)
    14a4:	00164583          	lbu	a1,1(a2)
    14a8:	00160613          	addi	a2,a2,1
    14ac:	fe0596e3          	bnez	a1,1498 <handle_exception+0x34>
    14b0:	04000737          	lui	a4,0x4000
    14b4:	04000837          	lui	a6,0x4000
    14b8:	00028637          	lui	a2,0x28
    14bc:	90060613          	addi	a2,a2,-1792 # 27900 <CSWTCH.11+0x1ec>
    14c0:	04500593          	li	a1,69
    14c4:	04470713          	addi	a4,a4,68 # 4000044 <_stack_end+0x3ed8714>
    14c8:	000106b7          	lui	a3,0x10
    14cc:	04080813          	addi	a6,a6,64 # 4000040 <_stack_end+0x3ed8710>
    14d0:	00072783          	lw	a5,0(a4)
    14d4:	fed7eee3          	bltu	a5,a3,14d0 <handle_exception+0x6c>
    14d8:	00b82023          	sw	a1,0(a6)
    14dc:	00164583          	lbu	a1,1(a2)
    14e0:	00160613          	addi	a2,a2,1
    14e4:	fe0596e3          	bnez	a1,14d0 <handle_exception+0x6c>
    14e8:	04000737          	lui	a4,0x4000
    14ec:	04470713          	addi	a4,a4,68 # 4000044 <_stack_end+0x3ed8714>
    14f0:	000106b7          	lui	a3,0x10
    14f4:	00072783          	lw	a5,0(a4)
    14f8:	fed7eee3          	bltu	a5,a3,14f4 <handle_exception+0x90>
    14fc:	03000693          	li	a3,48
    1500:	040007b7          	lui	a5,0x4000
    1504:	04000737          	lui	a4,0x4000
    1508:	04d7a023          	sw	a3,64(a5) # 4000040 <_stack_end+0x3ed8710>
    150c:	04470713          	addi	a4,a4,68 # 4000044 <_stack_end+0x3ed8714>
    1510:	000106b7          	lui	a3,0x10
    1514:	00072783          	lw	a5,0(a4)
    1518:	fed7eee3          	bltu	a5,a3,1514 <handle_exception+0xb0>
    151c:	04000837          	lui	a6,0x4000
    1520:	04080813          	addi	a6,a6,64 # 4000040 <_stack_end+0x3ed8710>
    1524:	04000737          	lui	a4,0x4000
    1528:	07800793          	li	a5,120
    152c:	00f82023          	sw	a5,0(a6)
    1530:	01c00613          	li	a2,28
    1534:	00900313          	li	t1,9
    1538:	04470713          	addi	a4,a4,68 # 4000044 <_stack_end+0x3ed8714>
    153c:	000106b7          	lui	a3,0x10
    1540:	ffc00893          	li	a7,-4
    1544:	00c557b3          	srl	a5,a0,a2
    1548:	00f7f793          	andi	a5,a5,15
    154c:	03778593          	addi	a1,a5,55
    1550:	00f36463          	bltu	t1,a5,1558 <handle_exception+0xf4>
    1554:	03078593          	addi	a1,a5,48
    1558:	00072783          	lw	a5,0(a4)
    155c:	fed7eee3          	bltu	a5,a3,1558 <handle_exception+0xf4>
    1560:	00b82023          	sw	a1,0(a6)
    1564:	ffc60613          	addi	a2,a2,-4
    1568:	fd161ee3          	bne	a2,a7,1544 <handle_exception+0xe0>
    156c:	04000737          	lui	a4,0x4000
    1570:	04470713          	addi	a4,a4,68 # 4000044 <_stack_end+0x3ed8714>
    1574:	000106b7          	lui	a3,0x10
    1578:	00072783          	lw	a5,0(a4)
    157c:	fed7eee3          	bltu	a5,a3,1578 <handle_exception+0x114>
    1580:	040007b7          	lui	a5,0x4000
    1584:	00a00713          	li	a4,10
    1588:	04e7a023          	sw	a4,64(a5) # 4000040 <_stack_end+0x3ed8710>
    158c:	0000006f          	j	158c <handle_exception+0x128>
    1590:	00400793          	li	a5,4
    1594:	0af88063          	beq	a7,a5,1634 <handle_exception+0x1d0>
    1598:	0d089a63          	bne	a7,a6,166c <handle_exception+0x208>
    159c:	04000737          	lui	a4,0x4000
    15a0:	04470713          	addi	a4,a4,68 # 4000044 <_stack_end+0x3ed8714>
    15a4:	000106b7          	lui	a3,0x10
    15a8:	00072783          	lw	a5,0(a4)
    15ac:	fed7eee3          	bltu	a5,a3,15a8 <handle_exception+0x144>
    15b0:	040007b7          	lui	a5,0x4000
    15b4:	0ff57513          	zext.b	a0,a0
    15b8:	04a7a023          	sw	a0,64(a5) # 4000040 <_stack_end+0x3ed8710>
    15bc:	00008067          	ret
    15c0:	04000837          	lui	a6,0x4000
    15c4:	00028637          	lui	a2,0x28
    15c8:	8e060613          	addi	a2,a2,-1824 # 278e0 <CSWTCH.11+0x1cc>
    15cc:	00a00593          	li	a1,10
    15d0:	04470713          	addi	a4,a4,68
    15d4:	000106b7          	lui	a3,0x10
    15d8:	04080813          	addi	a6,a6,64 # 4000040 <_stack_end+0x3ed8710>
    15dc:	00072783          	lw	a5,0(a4)
    15e0:	fed7eee3          	bltu	a5,a3,15dc <handle_exception+0x178>
    15e4:	00b82023          	sw	a1,0(a6)
    15e8:	00164583          	lbu	a1,1(a2)
    15ec:	00160613          	addi	a2,a2,1
    15f0:	fe0596e3          	bnez	a1,15dc <handle_exception+0x178>
    15f4:	ebdff06f          	j	14b0 <handle_exception+0x4c>
    15f8:	04000737          	lui	a4,0x4000
    15fc:	04000837          	lui	a6,0x4000
    1600:	00028637          	lui	a2,0x28
    1604:	8bc60613          	addi	a2,a2,-1860 # 278bc <CSWTCH.11+0x1a8>
    1608:	00a00593          	li	a1,10
    160c:	04470713          	addi	a4,a4,68 # 4000044 <_stack_end+0x3ed8714>
    1610:	000106b7          	lui	a3,0x10
    1614:	04080813          	addi	a6,a6,64 # 4000040 <_stack_end+0x3ed8710>
    1618:	00072783          	lw	a5,0(a4)
    161c:	fed7eee3          	bltu	a5,a3,1618 <handle_exception+0x1b4>
    1620:	00b82023          	sw	a1,0(a6)
    1624:	00164583          	lbu	a1,1(a2)
    1628:	00160613          	addi	a2,a2,1
    162c:	fe0596e3          	bnez	a1,1618 <handle_exception+0x1b4>
    1630:	e81ff06f          	j	14b0 <handle_exception+0x4c>
    1634:	00054603          	lbu	a2,0(a0)
    1638:	02060a63          	beqz	a2,166c <handle_exception+0x208>
    163c:	04000737          	lui	a4,0x4000
    1640:	040005b7          	lui	a1,0x4000
    1644:	04470713          	addi	a4,a4,68 # 4000044 <_stack_end+0x3ed8714>
    1648:	000106b7          	lui	a3,0x10
    164c:	04058593          	addi	a1,a1,64 # 4000040 <_stack_end+0x3ed8710>
    1650:	00072783          	lw	a5,0(a4)
    1654:	fed7eee3          	bltu	a5,a3,1650 <handle_exception+0x1ec>
    1658:	00c5a023          	sw	a2,0(a1)
    165c:	00154603          	lbu	a2,1(a0)
    1660:	00150513          	addi	a0,a0,1
    1664:	fe0616e3          	bnez	a2,1650 <handle_exception+0x1ec>
    1668:	00008067          	ret
    166c:	00008067          	ret

00001670 <nextprime>:
    1670:	00200713          	li	a4,2
    1674:	00050793          	mv	a5,a0
    1678:	02a74063          	blt	a4,a0,1698 <nextprime+0x28>
    167c:	00100513          	li	a0,1
    1680:	00f05a63          	blez	a5,1694 <nextprime+0x24>
    1684:	fff78793          	addi	a5,a5,-1
    1688:	00f037b3          	snez	a5,a5
    168c:	00278513          	addi	a0,a5,2
    1690:	00008067          	ret
    1694:	00008067          	ret
    1698:	00150793          	addi	a5,a0,1
    169c:	0017e513          	ori	a0,a5,1
    16a0:	00300613          	li	a2,3
    16a4:	02c567b3          	rem	a5,a0,a2
    16a8:	40155693          	srai	a3,a0,0x1
    16ac:	02078263          	beqz	a5,16d0 <nextprime+0x60>
    16b0:	00268693          	addi	a3,a3,2 # 10002 <LoadingOutput_bmp+0xe10a>
    16b4:	00300793          	li	a5,3
    16b8:	00c0006f          	j	16c4 <nextprime+0x54>
    16bc:	02f56733          	rem	a4,a0,a5
    16c0:	00070863          	beqz	a4,16d0 <nextprime+0x60>
    16c4:	00178793          	addi	a5,a5,1
    16c8:	fef69ae3          	bne	a3,a5,16bc <nextprime+0x4c>
    16cc:	00008067          	ret
    16d0:	00250513          	addi	a0,a0,2
    16d4:	fd1ff06f          	j	16a4 <nextprime+0x34>

000016d8 <min>:
    16d8:	00050793          	mv	a5,a0
    16dc:	00058513          	mv	a0,a1
    16e0:	00b7d463          	bge	a5,a1,16e8 <min+0x10>
    16e4:	00078513          	mv	a0,a5
    16e8:	00008067          	ret

000016ec <max>:
    16ec:	00050793          	mv	a5,a0
    16f0:	00058513          	mv	a0,a1
    16f4:	00f5d463          	bge	a1,a5,16fc <max+0x10>
    16f8:	00078513          	mv	a0,a5
    16fc:	00008067          	ret

00001700 <display_string>:
    1700:	00400893          	li	a7,4
    1704:	00000073          	ecall
    1708:	00a00513          	li	a0,10
    170c:	00b00893          	li	a7,11
    1710:	00000073          	ecall
    1714:	00008067          	ret

00001718 <staticKernel0>:
    1718:	00100793          	li	a5,1
    171c:	00f52023          	sw	a5,0(a0)
    1720:	00100513          	li	a0,1
    1724:	00008067          	ret

00001728 <staticGaussianKernel1>:
    1728:	00100793          	li	a5,1
    172c:	00200713          	li	a4,2
    1730:	00400693          	li	a3,4
    1734:	00f52023          	sw	a5,0(a0)
    1738:	00e52223          	sw	a4,4(a0)
    173c:	00f52423          	sw	a5,8(a0)
    1740:	00e52623          	sw	a4,12(a0)
    1744:	00d52823          	sw	a3,16(a0)
    1748:	00e52a23          	sw	a4,20(a0)
    174c:	00f52c23          	sw	a5,24(a0)
    1750:	00e52e23          	sw	a4,28(a0)
    1754:	02f52023          	sw	a5,32(a0)
    1758:	01000513          	li	a0,16
    175c:	00008067          	ret

00001760 <staticGaussianKernel2>:
    1760:	00800793          	li	a5,8
    1764:	00100713          	li	a4,1
    1768:	01100693          	li	a3,17
    176c:	04600613          	li	a2,70
    1770:	08d00593          	li	a1,141
    1774:	11e00813          	li	a6,286
    1778:	00e52023          	sw	a4,0(a0)
    177c:	00f52223          	sw	a5,4(a0)
    1780:	00d52423          	sw	a3,8(a0)
    1784:	00f52623          	sw	a5,12(a0)
    1788:	00e52823          	sw	a4,16(a0)
    178c:	00f52a23          	sw	a5,20(a0)
    1790:	00c52c23          	sw	a2,24(a0)
    1794:	00b52e23          	sw	a1,28(a0)
    1798:	02c52023          	sw	a2,32(a0)
    179c:	02f52223          	sw	a5,36(a0)
    17a0:	02d52423          	sw	a3,40(a0)
    17a4:	02b52623          	sw	a1,44(a0)
    17a8:	03052823          	sw	a6,48(a0)
    17ac:	02b52a23          	sw	a1,52(a0)
    17b0:	02d52c23          	sw	a3,56(a0)
    17b4:	02f52e23          	sw	a5,60(a0)
    17b8:	04c52023          	sw	a2,64(a0)
    17bc:	04b52223          	sw	a1,68(a0)
    17c0:	04c52423          	sw	a2,72(a0)
    17c4:	04f52623          	sw	a5,76(a0)
    17c8:	04e52823          	sw	a4,80(a0)
    17cc:	04f52a23          	sw	a5,84(a0)
    17d0:	04d52c23          	sw	a3,88(a0)
    17d4:	04f52e23          	sw	a5,92(a0)
    17d8:	06e52023          	sw	a4,96(a0)
    17dc:	4f200513          	li	a0,1266
    17e0:	00008067          	ret

000017e4 <staticGaussianKernel3>:
    17e4:	00002737          	lui	a4,0x2
    17e8:	000055b7          	lui	a1,0x5
    17ec:	00014837          	lui	a6,0x14
    17f0:	000298b7          	lui	a7,0x29
    17f4:	00052f37          	lui	t5,0x52
    17f8:	02200693          	li	a3,34
    17fc:	11e00613          	li	a2,286
    1800:	65e70713          	addi	a4,a4,1630 # 265e <LoadingOutput_bmp+0x766>
    1804:	00100313          	li	t1,1
    1808:	24500e13          	li	t3,581
    180c:	49900e93          	li	t4,1177
    1810:	dd058593          	addi	a1,a1,-560 # 4dd0 <LoadingOutput_bmp+0x2ed8>
    1814:	01180813          	addi	a6,a6,17 # 14011 <LoadingOutput_bmp+0x12119>
    1818:	92288893          	addi	a7,a7,-1758 # 28922 <__global_pointer+0xa2a>
    181c:	484f0f13          	addi	t5,t5,1156 # 52484 <__global_pointer+0x2a58c>
    1820:	00050793          	mv	a5,a0
    1824:	00652023          	sw	t1,0(a0)
    1828:	00d52223          	sw	a3,4(a0)
    182c:	00c52423          	sw	a2,8(a0)
    1830:	01c52623          	sw	t3,12(a0)
    1834:	00c52823          	sw	a2,16(a0)
    1838:	00d52a23          	sw	a3,20(a0)
    183c:	00652c23          	sw	t1,24(a0)
    1840:	00d52e23          	sw	a3,28(a0)
    1844:	03d52023          	sw	t4,32(a0)
    1848:	02e52223          	sw	a4,36(a0)
    184c:	02b52423          	sw	a1,40(a0)
    1850:	02e52623          	sw	a4,44(a0)
    1854:	03d52823          	sw	t4,48(a0)
    1858:	02d52a23          	sw	a3,52(a0)
    185c:	02c52c23          	sw	a2,56(a0)
    1860:	02e52e23          	sw	a4,60(a0)
    1864:	05052023          	sw	a6,64(a0)
    1868:	05152223          	sw	a7,68(a0)
    186c:	05052423          	sw	a6,72(a0)
    1870:	04e52623          	sw	a4,76(a0)
    1874:	04c52823          	sw	a2,80(a0)
    1878:	05c52a23          	sw	t3,84(a0)
    187c:	04b52c23          	sw	a1,88(a0)
    1880:	05152e23          	sw	a7,92(a0)
    1884:	07e52023          	sw	t5,96(a0)
    1888:	07152223          	sw	a7,100(a0)
    188c:	06b52423          	sw	a1,104(a0)
    1890:	07c52623          	sw	t3,108(a0)
    1894:	06c52823          	sw	a2,112(a0)
    1898:	06e52a23          	sw	a4,116(a0)
    189c:	07052c23          	sw	a6,120(a0)
    18a0:	07152e23          	sw	a7,124(a0)
    18a4:	0016e537          	lui	a0,0x16e
    18a8:	0907a023          	sw	a6,128(a5)
    18ac:	8fc50513          	addi	a0,a0,-1796 # 16d8fc <_stack_end+0x45fcc>
    18b0:	08e7a223          	sw	a4,132(a5)
    18b4:	08c7a423          	sw	a2,136(a5)
    18b8:	08d7a623          	sw	a3,140(a5)
    18bc:	09d7a823          	sw	t4,144(a5)
    18c0:	08e7aa23          	sw	a4,148(a5)
    18c4:	08b7ac23          	sw	a1,152(a5)
    18c8:	08e7ae23          	sw	a4,156(a5)
    18cc:	0bd7a023          	sw	t4,160(a5)
    18d0:	0ad7a223          	sw	a3,164(a5)
    18d4:	0a67a423          	sw	t1,168(a5)
    18d8:	0ad7a623          	sw	a3,172(a5)
    18dc:	0ac7a823          	sw	a2,176(a5)
    18e0:	0bc7aa23          	sw	t3,180(a5)
    18e4:	0ac7ac23          	sw	a2,184(a5)
    18e8:	0ad7ae23          	sw	a3,188(a5)
    18ec:	0c67a023          	sw	t1,192(a5)
    18f0:	00008067          	ret

000018f4 <staticEdgeDetectionKernel1>:
    18f4:	fff00713          	li	a4,-1
    18f8:	00100793          	li	a5,1
    18fc:	00e52023          	sw	a4,0(a0)
    1900:	00e52223          	sw	a4,4(a0)
    1904:	00e52423          	sw	a4,8(a0)
    1908:	00052623          	sw	zero,12(a0)
    190c:	00052823          	sw	zero,16(a0)
    1910:	00052a23          	sw	zero,20(a0)
    1914:	00f52c23          	sw	a5,24(a0)
    1918:	00f52e23          	sw	a5,28(a0)
    191c:	02f52023          	sw	a5,32(a0)
    1920:	00700513          	li	a0,7
    1924:	00008067          	ret

00001928 <staticEdgeDetectionKernel2>:
    1928:	00100793          	li	a5,1
    192c:	fff00693          	li	a3,-1
    1930:	00200713          	li	a4,2
    1934:	ffe00613          	li	a2,-2
    1938:	00d52023          	sw	a3,0(a0)
    193c:	00d52223          	sw	a3,4(a0)
    1940:	00c52423          	sw	a2,8(a0)
    1944:	00d52623          	sw	a3,12(a0)
    1948:	00d52823          	sw	a3,16(a0)
    194c:	00d52a23          	sw	a3,20(a0)
    1950:	00052c23          	sw	zero,24(a0)
    1954:	00052e23          	sw	zero,28(a0)
    1958:	02052023          	sw	zero,32(a0)
    195c:	02052223          	sw	zero,36(a0)
    1960:	02052423          	sw	zero,40(a0)
    1964:	02052623          	sw	zero,44(a0)
    1968:	02f52823          	sw	a5,48(a0)
    196c:	02f52a23          	sw	a5,52(a0)
    1970:	02e52c23          	sw	a4,56(a0)
    1974:	02f52e23          	sw	a5,60(a0)
    1978:	04f52023          	sw	a5,64(a0)
    197c:	04f52223          	sw	a5,68(a0)
    1980:	04e52423          	sw	a4,72(a0)
    1984:	04e52623          	sw	a4,76(a0)
    1988:	04e52823          	sw	a4,80(a0)
    198c:	04e52a23          	sw	a4,84(a0)
    1990:	04f52c23          	sw	a5,88(a0)
    1994:	04f52e23          	sw	a5,92(a0)
    1998:	06f52023          	sw	a5,96(a0)
    199c:	06400513          	li	a0,100
    19a0:	00008067          	ret

000019a4 <__divdf3>:
    19a4:	ffe007b7          	lui	a5,0xffe00
    19a8:	00159713          	slli	a4,a1,0x1
    19ac:	00169313          	slli	t1,a3,0x1
    19b0:	24f77c63          	bgeu	a4,a5,1c08 <inf_nan>
    19b4:	24f37a63          	bgeu	t1,a5,1c08 <inf_nan>
    19b8:	01575713          	srli	a4,a4,0x15
    19bc:	01535313          	srli	t1,t1,0x15
    19c0:	22070863          	beqz	a4,1bf0 <zero_denormal>
    19c4:	22030663          	beqz	t1,1bf0 <zero_denormal>

000019c8 <normal_case>:
    19c8:	40670733          	sub	a4,a4,t1
    19cc:	00d5c2b3          	xor	t0,a1,a3
    19d0:	00c69693          	slli	a3,a3,0xc
    19d4:	00d667b3          	or	a5,a2,a3
    19d8:	00c59593          	slli	a1,a1,0xc
    19dc:	1e078063          	beqz	a5,1bbc <pow_2>
    19e0:	100007b7          	lui	a5,0x10000
    19e4:	0046d693          	srli	a3,a3,0x4
    19e8:	00f6e6b3          	or	a3,a3,a5
    19ec:	01865393          	srli	t2,a2,0x18
    19f0:	0076e6b3          	or	a3,a3,t2
    19f4:	00861613          	slli	a2,a2,0x8
    19f8:	0045d393          	srli	t2,a1,0x4
    19fc:	0077e7b3          	or	a5,a5,t2
    1a00:	01855393          	srli	t2,a0,0x18
    1a04:	0077e7b3          	or	a5,a5,t2
    1a08:	00851313          	slli	t1,a0,0x8
    1a0c:	800003b7          	lui	t2,0x80000
    1a10:	0072f5b3          	and	a1,t0,t2
    1a14:	40d783b3          	sub	t2,a5,a3
    1a18:	0013b393          	seqz	t2,t2
    1a1c:	00c332b3          	sltu	t0,t1,a2
    1a20:	0053f3b3          	and	t2,t2,t0
    1a24:	00d7b2b3          	sltu	t0,a5,a3
    1a28:	0053e3b3          	or	t2,t2,t0
    1a2c:	3fe70713          	addi	a4,a4,1022
    1a30:	40770733          	sub	a4,a4,t2
    1a34:	00038a63          	beqz	t2,1a48 <normal_case+0x80>
    1a38:	00165613          	srli	a2,a2,0x1
    1a3c:	01f69293          	slli	t0,a3,0x1f
    1a40:	00566633          	or	a2,a2,t0
    1a44:	0016d693          	srli	a3,a3,0x1
    1a48:	00c332b3          	sltu	t0,t1,a2
    1a4c:	40c30333          	sub	t1,t1,a2
    1a50:	40d787b3          	sub	a5,a5,a3
    1a54:	405787b3          	sub	a5,a5,t0
    1a58:	00165613          	srli	a2,a2,0x1
    1a5c:	01f69293          	slli	t0,a3,0x1f
    1a60:	00566633          	or	a2,a2,t0
    1a64:	0016d693          	srli	a3,a3,0x1
    1a68:	00100537          	lui	a0,0x100
    1a6c:	000803b7          	lui	t2,0x80

00001a70 <div_loop_start>:
    1a70:	40d782b3          	sub	t0,a5,a3
    1a74:	00c37463          	bgeu	t1,a2,1a7c <div_loop_start+0xc>
    1a78:	fff28293          	addi	t0,t0,-1
    1a7c:	0002c863          	bltz	t0,1a8c <div_loop_start+0x1c>
    1a80:	40c30333          	sub	t1,t1,a2
    1a84:	00028793          	mv	a5,t0
    1a88:	00756533          	or	a0,a0,t2
    1a8c:	00165613          	srli	a2,a2,0x1
    1a90:	01f69293          	slli	t0,a3,0x1f
    1a94:	00566633          	or	a2,a2,t0
    1a98:	0016d693          	srli	a3,a3,0x1
    1a9c:	40d782b3          	sub	t0,a5,a3
    1aa0:	00c37463          	bgeu	t1,a2,1aa8 <div_loop_start+0x38>
    1aa4:	fff28293          	addi	t0,t0,-1
    1aa8:	0002ca63          	bltz	t0,1abc <div_loop_start+0x4c>
    1aac:	40c30333          	sub	t1,t1,a2
    1ab0:	00028793          	mv	a5,t0
    1ab4:	0013d293          	srli	t0,t2,0x1
    1ab8:	00556533          	or	a0,a0,t0
    1abc:	00165613          	srli	a2,a2,0x1
    1ac0:	01f69293          	slli	t0,a3,0x1f
    1ac4:	00566633          	or	a2,a2,t0
    1ac8:	0016d693          	srli	a3,a3,0x1
    1acc:	40d782b3          	sub	t0,a5,a3
    1ad0:	00c37463          	bgeu	t1,a2,1ad8 <div_loop_start+0x68>
    1ad4:	fff28293          	addi	t0,t0,-1
    1ad8:	0002ca63          	bltz	t0,1aec <div_loop_start+0x7c>
    1adc:	40c30333          	sub	t1,t1,a2
    1ae0:	00028793          	mv	a5,t0
    1ae4:	0023d293          	srli	t0,t2,0x2
    1ae8:	00556533          	or	a0,a0,t0
    1aec:	00165613          	srli	a2,a2,0x1
    1af0:	01f69293          	slli	t0,a3,0x1f
    1af4:	00566633          	or	a2,a2,t0
    1af8:	0016d693          	srli	a3,a3,0x1
    1afc:	40d782b3          	sub	t0,a5,a3
    1b00:	00c37463          	bgeu	t1,a2,1b08 <div_loop_start+0x98>
    1b04:	fff28293          	addi	t0,t0,-1
    1b08:	0002ca63          	bltz	t0,1b1c <div_loop_start+0xac>
    1b0c:	40c30333          	sub	t1,t1,a2
    1b10:	00028793          	mv	a5,t0
    1b14:	0033d293          	srli	t0,t2,0x3
    1b18:	00556533          	or	a0,a0,t0
    1b1c:	0067e2b3          	or	t0,a5,t1
    1b20:	04028463          	beqz	t0,1b68 <div_loop_exit>
    1b24:	00479793          	slli	a5,a5,0x4
    1b28:	01c35293          	srli	t0,t1,0x1c
    1b2c:	0057e7b3          	or	a5,a5,t0
    1b30:	00431313          	slli	t1,t1,0x4
    1b34:	00369693          	slli	a3,a3,0x3
    1b38:	01d65293          	srli	t0,a2,0x1d
    1b3c:	0056e6b3          	or	a3,a3,t0
    1b40:	00361613          	slli	a2,a2,0x3
    1b44:	0043d393          	srli	t2,t2,0x4
    1b48:	f20394e3          	bnez	t2,1a70 <div_loop_start>
    1b4c:	001002b7          	lui	t0,0x100
    1b50:	00b2f2b3          	and	t0,t0,a1
    1b54:	02029463          	bnez	t0,1b7c <checks>
    1b58:	00a5e5b3          	or	a1,a1,a0
    1b5c:	00000513          	li	a0,0
    1b60:	800003b7          	lui	t2,0x80000
    1b64:	f0dff06f          	j	1a70 <div_loop_start>

00001b68 <div_loop_exit>:
    1b68:	001002b7          	lui	t0,0x100
    1b6c:	00b2f2b3          	and	t0,t0,a1
    1b70:	00029663          	bnez	t0,1b7c <checks>
    1b74:	00a5e5b3          	or	a1,a1,a0
    1b78:	00000513          	li	a0,0

00001b7c <checks>:
    1b7c:	f0370393          	addi	t2,a4,-253
    1b80:	00e3f663          	bgeu	t2,a4,1b8c <exp_round>
    1b84:	70000293          	li	t0,1792
    1b88:	0672e063          	bltu	t0,t2,1be8 <und_ov_flow>

00001b8c <exp_round>:
    1b8c:	01471713          	slli	a4,a4,0x14
    1b90:	00e585b3          	add	a1,a1,a4
    1b94:	02d7e263          	bltu	a5,a3,1bb8 <exit>
    1b98:	00f6ea63          	bltu	a3,a5,1bac <round_up>
    1b9c:	00c36e63          	bltu	t1,a2,1bb8 <exit>
    1ba0:	00666663          	bltu	a2,t1,1bac <round_up>
    1ba4:	01f51293          	slli	t0,a0,0x1f
    1ba8:	00028863          	beqz	t0,1bb8 <exit>

00001bac <round_up>:
    1bac:	00150513          	addi	a0,a0,1 # 100001 <__stack_size+0x1>
    1bb0:	00153293          	seqz	t0,a0
    1bb4:	005585b3          	add	a1,a1,t0

00001bb8 <exit>:
    1bb8:	00008067          	ret

00001bbc <pow_2>:
    1bbc:	800003b7          	lui	t2,0x80000
    1bc0:	0072f2b3          	and	t0,t0,t2
    1bc4:	00c5d593          	srli	a1,a1,0xc
    1bc8:	0055e5b3          	or	a1,a1,t0
    1bcc:	3ff70713          	addi	a4,a4,1023
    1bd0:	02e05463          	blez	a4,1bf8 <signed_zero>
    1bd4:	7ff72293          	slti	t0,a4,2047
    1bd8:	04028a63          	beqz	t0,1c2c <ovf>
    1bdc:	01471713          	slli	a4,a4,0x14
    1be0:	00e5e5b3          	or	a1,a1,a4
    1be4:	00008067          	ret

00001be8 <und_ov_flow>:
    1be8:	0472c263          	blt	t0,t2,1c2c <ovf>
    1bec:	00c0006f          	j	1bf8 <signed_zero>

00001bf0 <zero_denormal>:
    1bf0:	04030a63          	beqz	t1,1c44 <div_by_zero>

00001bf4 <zero>:
    1bf4:	00d5c5b3          	xor	a1,a1,a3

00001bf8 <signed_zero>:
    1bf8:	01f5d593          	srli	a1,a1,0x1f
    1bfc:	01f59593          	slli	a1,a1,0x1f
    1c00:	00000513          	li	a0,0
    1c04:	00008067          	ret

00001c08 <inf_nan>:
    1c08:	00a032b3          	snez	t0,a0
    1c0c:	00e2e2b3          	or	t0,t0,a4
    1c10:	0257ec63          	bltu	a5,t0,1c48 <nan>
    1c14:	00c032b3          	snez	t0,a2
    1c18:	0062e2b3          	or	t0,t0,t1
    1c1c:	0257e663          	bltu	a5,t0,1c48 <nan>
    1c20:	02670463          	beq	a4,t1,1c48 <nan>
    1c24:	fcf308e3          	beq	t1,a5,1bf4 <zero>

00001c28 <inf>:
    1c28:	00d5c5b3          	xor	a1,a1,a3

00001c2c <ovf>:
    1c2c:	7ff006b7          	lui	a3,0x7ff00
    1c30:	01f5d593          	srli	a1,a1,0x1f
    1c34:	01f59593          	slli	a1,a1,0x1f
    1c38:	00d5e5b3          	or	a1,a1,a3
    1c3c:	00000513          	li	a0,0
    1c40:	00008067          	ret

00001c44 <div_by_zero>:
    1c44:	fe0712e3          	bnez	a4,1c28 <inf>

00001c48 <nan>:
    1c48:	7ff805b7          	lui	a1,0x7ff80
    1c4c:	00000513          	li	a0,0
    1c50:	00008067          	ret

00001c54 <__fixdfsi>:
    1c54:	80000737          	lui	a4,0x80000
    1c58:	41f5d793          	srai	a5,a1,0x1f
    1c5c:	00159593          	slli	a1,a1,0x1
    1c60:	0155d613          	srli	a2,a1,0x15
    1c64:	c0160613          	addi	a2,a2,-1023
    1c68:	02064e63          	bltz	a2,1ca4 <undflow>
    1c6c:	40c00633          	neg	a2,a2
    1c70:	01f60613          	addi	a2,a2,31
    1c74:	02c05263          	blez	a2,1c98 <ovflow>
    1c78:	00a59593          	slli	a1,a1,0xa
    1c7c:	01555513          	srli	a0,a0,0x15
    1c80:	00a5e5b3          	or	a1,a1,a0
    1c84:	00e5e5b3          	or	a1,a1,a4
    1c88:	00c5d533          	srl	a0,a1,a2
    1c8c:	00f54533          	xor	a0,a0,a5
    1c90:	40f50533          	sub	a0,a0,a5
    1c94:	00008067          	ret

00001c98 <ovflow>:
    1c98:	fff70513          	addi	a0,a4,-1 # 7fffffff <_stack_end+0x7fed86cf>
    1c9c:	00f54533          	xor	a0,a0,a5
    1ca0:	00008067          	ret

00001ca4 <undflow>:
    1ca4:	00000513          	li	a0,0
    1ca8:	00008067          	ret

00001cac <__floatsidf>:
    1cac:	41f55793          	srai	a5,a0,0x1f
    1cb0:	00f545b3          	xor	a1,a0,a5
    1cb4:	40f585b3          	sub	a1,a1,a5
    1cb8:	02050863          	beqz	a0,1ce8 <exit>
    1cbc:	01f79793          	slli	a5,a5,0x1f
    1cc0:	41d00613          	li	a2,1053
    1cc4:	0005c863          	bltz	a1,1cd4 <__floatsidf+0x28>
    1cc8:	fff60613          	addi	a2,a2,-1
    1ccc:	00159593          	slli	a1,a1,0x1
    1cd0:	feb04ce3          	bgtz	a1,1cc8 <__floatsidf+0x1c>
    1cd4:	01559513          	slli	a0,a1,0x15
    1cd8:	00b5d593          	srli	a1,a1,0xb
    1cdc:	01461613          	slli	a2,a2,0x14
    1ce0:	00c585b3          	add	a1,a1,a2
    1ce4:	00f5e5b3          	or	a1,a1,a5

00001ce8 <exit>:
    1ce8:	00008067          	ret

00001cec <__muldf3>:
    1cec:	00d5c733          	xor	a4,a1,a3
    1cf0:	800007b7          	lui	a5,0x80000
    1cf4:	00f772b3          	and	t0,a4,a5
    1cf8:	7ff00793          	li	a5,2047
    1cfc:	0145d713          	srli	a4,a1,0x14
    1d00:	00f77733          	and	a4,a4,a5
    1d04:	0146d313          	srli	t1,a3,0x14
    1d08:	00f37333          	and	t1,t1,a5
    1d0c:	10f70863          	beq	a4,a5,1e1c <inf_nan>
    1d10:	10f30663          	beq	t1,a5,1e1c <inf_nan>
    1d14:	0e070e63          	beqz	a4,1e10 <signed_zero>
    1d18:	0e030c63          	beqz	t1,1e10 <signed_zero>

00001d1c <normal_case>:
    1d1c:	00670733          	add	a4,a4,t1
    1d20:	fff007b7          	lui	a5,0xfff00
    1d24:	fff7c793          	not	a5,a5
    1d28:	00f5f5b3          	and	a1,a1,a5
    1d2c:	00f6f6b3          	and	a3,a3,a5
    1d30:	001007b7          	lui	a5,0x100
    1d34:	00f5e5b3          	or	a1,a1,a5
    1d38:	00f6e6b3          	or	a3,a3,a5
    1d3c:	02c58333          	mul	t1,a1,a2
    1d40:	02d507b3          	mul	a5,a0,a3
    1d44:	00f30333          	add	t1,t1,a5
    1d48:	00f337b3          	sltu	a5,t1,a5
    1d4c:	02c5b3b3          	mulhu	t2,a1,a2
    1d50:	00f383b3          	add	t2,t2,a5
    1d54:	02d537b3          	mulhu	a5,a0,a3
    1d58:	00f383b3          	add	t2,t2,a5
    1d5c:	02c507b3          	mul	a5,a0,a2
    1d60:	02c53633          	mulhu	a2,a0,a2
    1d64:	02d58533          	mul	a0,a1,a3
    1d68:	02d5b5b3          	mulhu	a1,a1,a3
    1d6c:	00660633          	add	a2,a2,t1
    1d70:	00663333          	sltu	t1,a2,t1
    1d74:	006383b3          	add	t2,t2,t1
    1d78:	00750533          	add	a0,a0,t2
    1d7c:	007533b3          	sltu	t2,a0,t2
    1d80:	007585b3          	add	a1,a1,t2
    1d84:	00f037b3          	snez	a5,a5
    1d88:	00f66633          	or	a2,a2,a5
    1d8c:	20000393          	li	t2,512
    1d90:	0275f263          	bgeu	a1,t2,1db4 <normal_case+0x98>
    1d94:	00159593          	slli	a1,a1,0x1
    1d98:	01f55793          	srli	a5,a0,0x1f
    1d9c:	00f5e5b3          	or	a1,a1,a5
    1da0:	00151513          	slli	a0,a0,0x1
    1da4:	01f65793          	srli	a5,a2,0x1f
    1da8:	00f56533          	or	a0,a0,a5
    1dac:	00161613          	slli	a2,a2,0x1
    1db0:	fff70713          	addi	a4,a4,-1
    1db4:	00b59593          	slli	a1,a1,0xb
    1db8:	01555793          	srli	a5,a0,0x15
    1dbc:	00f5e5b3          	or	a1,a1,a5
    1dc0:	00b51513          	slli	a0,a0,0xb
    1dc4:	01565793          	srli	a5,a2,0x15
    1dc8:	00f56533          	or	a0,a0,a5
    1dcc:	00b61613          	slli	a2,a2,0xb
    1dd0:	c0170713          	addi	a4,a4,-1023
    1dd4:	7fe00313          	li	t1,2046
    1dd8:	02677863          	bgeu	a4,t1,1e08 <und_ov_flow>
    1ddc:	01471713          	slli	a4,a4,0x14
    1de0:	00e585b3          	add	a1,a1,a4

00001de4 <rounding>:
    1de4:	800007b7          	lui	a5,0x80000
    1de8:	00f66c63          	bltu	a2,a5,1e00 <exit>
    1dec:	00150513          	addi	a0,a0,1
    1df0:	00153313          	seqz	t1,a0
    1df4:	006585b3          	add	a1,a1,t1
    1df8:	00f61463          	bne	a2,a5,1e00 <exit>
    1dfc:	ffe57513          	andi	a0,a0,-2

00001e00 <exit>:
    1e00:	0055e5b3          	or	a1,a1,t0
    1e04:	00008067          	ret

00001e08 <und_ov_flow>:
    1e08:	04e04463          	bgtz	a4,1e50 <inf>
    1e0c:	0040006f          	j	1e10 <signed_zero>

00001e10 <signed_zero>:
    1e10:	00028593          	mv	a1,t0

00001e14 <zero_xl>:
    1e14:	00000513          	li	a0,0
    1e18:	00008067          	ret

00001e1c <inf_nan>:
    1e1c:	7ff00393          	li	t2,2047
    1e20:	01571793          	slli	a5,a4,0x15
    1e24:	02078c63          	beqz	a5,1e5c <nan>
    1e28:	01531793          	slli	a5,t1,0x15
    1e2c:	02078863          	beqz	a5,1e5c <nan>
    1e30:	00771863          	bne	a4,t2,1e40 <inf_nan+0x24>
    1e34:	00c59793          	slli	a5,a1,0xc
    1e38:	00a7e7b3          	or	a5,a5,a0
    1e3c:	02079063          	bnez	a5,1e5c <nan>
    1e40:	00731863          	bne	t1,t2,1e50 <inf>
    1e44:	00c69713          	slli	a4,a3,0xc
    1e48:	00c76733          	or	a4,a4,a2
    1e4c:	00071863          	bnez	a4,1e5c <nan>

00001e50 <inf>:
    1e50:	7ff005b7          	lui	a1,0x7ff00
    1e54:	0055e5b3          	or	a1,a1,t0
    1e58:	fbdff06f          	j	1e14 <zero_xl>

00001e5c <nan>:
    1e5c:	7ff805b7          	lui	a1,0x7ff80
    1e60:	fb5ff06f          	j	1e14 <zero_xl>
