
main.elf:     file format elf32-littleriscv


Disassembly of section .text:

00000000 <_isr_handler>:
       0:	0080006f          	j	8 <_isr_routine>
       4:	1440006f          	j	148 <_start>

00000008 <_isr_routine>:
       8:	f8010113          	addi	sp,sp,-128
       c:	00112023          	sw	ra,0(sp)
      10:	00312423          	sw	gp,8(sp)
      14:	00412623          	sw	tp,12(sp)
      18:	00512823          	sw	t0,16(sp)
      1c:	00612a23          	sw	t1,20(sp)
      20:	00712c23          	sw	t2,24(sp)
      24:	00812e23          	sw	s0,28(sp)
      28:	02912023          	sw	s1,32(sp)
      2c:	02a12223          	sw	a0,36(sp)
      30:	02b12423          	sw	a1,40(sp)
      34:	02c12623          	sw	a2,44(sp)
      38:	02d12823          	sw	a3,48(sp)
      3c:	02e12a23          	sw	a4,52(sp)
      40:	02f12c23          	sw	a5,56(sp)
      44:	03012e23          	sw	a6,60(sp)
      48:	05112023          	sw	a7,64(sp)
      4c:	05212223          	sw	s2,68(sp)
      50:	05312423          	sw	s3,72(sp)
      54:	05412623          	sw	s4,76(sp)
      58:	05512823          	sw	s5,80(sp)
      5c:	05612a23          	sw	s6,84(sp)
      60:	05712c23          	sw	s7,88(sp)
      64:	05812e23          	sw	s8,92(sp)
      68:	07912023          	sw	s9,96(sp)
      6c:	07a12223          	sw	s10,100(sp)
      70:	07b12423          	sw	s11,104(sp)
      74:	07c12623          	sw	t3,108(sp)
      78:	07d12823          	sw	t4,112(sp)
      7c:	07e12a23          	sw	t5,116(sp)
      80:	07f12c23          	sw	t6,120(sp)
      84:	342022f3          	csrr	t0,mcause
      88:	80000337          	lui	t1,0x80000
      8c:	02536463          	bltu	t1,t0,b4 <external_irq>
      90:	00028833          	add	a6,t0,zero
      94:	00b00313          	li	t1,11
      98:	00628463          	beq	t0,t1,a0 <skip_init_args>
      9c:	34102573          	csrr	a0,mepc

000000a0 <skip_init_args>:
      a0:	25c000ef          	jal	2fc <handle_exception>
      a4:	341022f3          	csrr	t0,mepc
      a8:	00428293          	addi	t0,t0,4
      ac:	34129073          	csrw	mepc,t0
      b0:	0180006f          	j	c8 <restore>

000000b4 <external_irq>:
      b4:	800002b7          	lui	t0,0x80000
      b8:	fff28293          	addi	t0,t0,-1 # 7fffffff <_stack_end+0x7feeb553>
      bc:	34202373          	csrr	t1,mcause
      c0:	0062f533          	and	a0,t0,t1
      c4:	780000ef          	jal	844 <handle_interrupt>

000000c8 <restore>:
      c8:	00012083          	lw	ra,0(sp)
      cc:	00812183          	lw	gp,8(sp)
      d0:	00c12203          	lw	tp,12(sp)
      d4:	01012283          	lw	t0,16(sp)
      d8:	01412303          	lw	t1,20(sp)
      dc:	01812383          	lw	t2,24(sp)
      e0:	01c12403          	lw	s0,28(sp)
      e4:	02012483          	lw	s1,32(sp)
      e8:	02412503          	lw	a0,36(sp)
      ec:	02812583          	lw	a1,40(sp)
      f0:	02c12603          	lw	a2,44(sp)
      f4:	03012683          	lw	a3,48(sp)
      f8:	03412703          	lw	a4,52(sp)
      fc:	03812783          	lw	a5,56(sp)
     100:	03c12803          	lw	a6,60(sp)
     104:	04012883          	lw	a7,64(sp)
     108:	04412903          	lw	s2,68(sp)
     10c:	04812983          	lw	s3,72(sp)
     110:	04c12a03          	lw	s4,76(sp)
     114:	05012a83          	lw	s5,80(sp)
     118:	05412b03          	lw	s6,84(sp)
     11c:	05812b83          	lw	s7,88(sp)
     120:	05c12c03          	lw	s8,92(sp)
     124:	06012c83          	lw	s9,96(sp)
     128:	06412d03          	lw	s10,100(sp)
     12c:	06812d83          	lw	s11,104(sp)
     130:	06c12e03          	lw	t3,108(sp)
     134:	07012e83          	lw	t4,112(sp)
     138:	07412f03          	lw	t5,116(sp)
     13c:	07812f83          	lw	t6,120(sp)
     140:	08010113          	addi	sp,sp,128
     144:	30200073          	mret

00000148 <_start>:
     148:	00115117          	auipc	sp,0x115
     14c:	96410113          	addi	sp,sp,-1692 # 114aac <_stack_end>
     150:	00015197          	auipc	gp,0x15
     154:	00618193          	addi	gp,gp,6 # 15156 <__global_pointer>
     158:	00001517          	auipc	a0,0x1
     15c:	6e050513          	addi	a0,a0,1760 # 1838 <welcome_msg>
     160:	00400893          	li	a7,4
     164:	00000073          	ecall
     168:	694010ef          	jal	17fc <main>

0000016c <loop>:
     16c:	0000006f          	j	16c <loop>

00000170 <enable_interrupt>:
     170:	30486073          	csrsi	mie,16
     174:	3001e073          	csrsi	mstatus,3
     178:	00008067          	ret

0000017c <display_string>:
     17c:	00400893          	li	a7,4
     180:	00000073          	ecall
     184:	00a00513          	li	a0,10
     188:	00b00893          	li	a7,11
     18c:	00000073          	ecall
     190:	00008067          	ret

00000194 <printc>:
     194:	04000737          	lui	a4,0x4000
     198:	04470713          	addi	a4,a4,68 # 4000044 <_stack_end+0x3eeb598>
     19c:	000106b7          	lui	a3,0x10
     1a0:	00072783          	lw	a5,0(a4)
     1a4:	fed7eee3          	bltu	a5,a3,1a0 <printc+0xc>
     1a8:	040007b7          	lui	a5,0x4000
     1ac:	04a7a023          	sw	a0,64(a5) # 4000040 <_stack_end+0x3eeb594>
     1b0:	00008067          	ret

000001b4 <print>:
     1b4:	00054603          	lbu	a2,0(a0)
     1b8:	02060863          	beqz	a2,1e8 <print+0x34>
     1bc:	04000737          	lui	a4,0x4000
     1c0:	040005b7          	lui	a1,0x4000
     1c4:	04470713          	addi	a4,a4,68 # 4000044 <_stack_end+0x3eeb598>
     1c8:	000106b7          	lui	a3,0x10
     1cc:	04058593          	addi	a1,a1,64 # 4000040 <_stack_end+0x3eeb594>
     1d0:	00072783          	lw	a5,0(a4)
     1d4:	fed7eee3          	bltu	a5,a3,1d0 <print+0x1c>
     1d8:	00c5a023          	sw	a2,0(a1)
     1dc:	00154603          	lbu	a2,1(a0)
     1e0:	00150513          	addi	a0,a0,1
     1e4:	fe0616e3          	bnez	a2,1d0 <print+0x1c>
     1e8:	00008067          	ret

000001ec <print_dec>:
     1ec:	3b9ad737          	lui	a4,0x3b9ad
     1f0:	040006b7          	lui	a3,0x4000
     1f4:	04000337          	lui	t1,0x4000
     1f8:	00a00593          	li	a1,10
     1fc:	00000793          	li	a5,0
     200:	a0070713          	addi	a4,a4,-1536 # 3b9aca00 <_stack_end+0x3b897f54>
     204:	04468693          	addi	a3,a3,68 # 4000044 <_stack_end+0x3eeb598>
     208:	00010637          	lui	a2,0x10
     20c:	04030313          	addi	t1,t1,64 # 4000040 <_stack_end+0x3eeb594>
     210:	00a00893          	li	a7,10
     214:	04e57063          	bgeu	a0,a4,254 <print_dec+0x68>
     218:	02079e63          	bnez	a5,254 <print_dec+0x68>
     21c:	fff58593          	addi	a1,a1,-1
     220:	02e57533          	remu	a0,a0,a4
     224:	03175733          	divu	a4,a4,a7
     228:	fe0596e3          	bnez	a1,214 <print_dec+0x28>
     22c:	02079263          	bnez	a5,250 <print_dec+0x64>
     230:	04000737          	lui	a4,0x4000
     234:	04470713          	addi	a4,a4,68 # 4000044 <_stack_end+0x3eeb598>
     238:	000106b7          	lui	a3,0x10
     23c:	00072783          	lw	a5,0(a4)
     240:	fed7eee3          	bltu	a5,a3,23c <print_dec+0x50>
     244:	040007b7          	lui	a5,0x4000
     248:	03000713          	li	a4,48
     24c:	04e7a023          	sw	a4,64(a5) # 4000040 <_stack_end+0x3eeb594>
     250:	00008067          	ret
     254:	02e55833          	divu	a6,a0,a4
     258:	03080813          	addi	a6,a6,48
     25c:	0ff87813          	zext.b	a6,a6
     260:	0006a783          	lw	a5,0(a3) # 10000 <output_bmp+0xe734>
     264:	fec7eee3          	bltu	a5,a2,260 <print_dec+0x74>
     268:	01032023          	sw	a6,0(t1)
     26c:	00100793          	li	a5,1
     270:	fadff06f          	j	21c <print_dec+0x30>

00000274 <print_hex32>:
     274:	04000737          	lui	a4,0x4000
     278:	04470713          	addi	a4,a4,68 # 4000044 <_stack_end+0x3eeb598>
     27c:	000106b7          	lui	a3,0x10
     280:	00072783          	lw	a5,0(a4)
     284:	fed7eee3          	bltu	a5,a3,280 <print_hex32+0xc>
     288:	03000693          	li	a3,48
     28c:	040007b7          	lui	a5,0x4000
     290:	04000737          	lui	a4,0x4000
     294:	04d7a023          	sw	a3,64(a5) # 4000040 <_stack_end+0x3eeb594>
     298:	04470713          	addi	a4,a4,68 # 4000044 <_stack_end+0x3eeb598>
     29c:	000106b7          	lui	a3,0x10
     2a0:	00072783          	lw	a5,0(a4)
     2a4:	fed7eee3          	bltu	a5,a3,2a0 <print_hex32+0x2c>
     2a8:	04000837          	lui	a6,0x4000
     2ac:	04080813          	addi	a6,a6,64 # 4000040 <_stack_end+0x3eeb594>
     2b0:	04000737          	lui	a4,0x4000
     2b4:	07800793          	li	a5,120
     2b8:	00f82023          	sw	a5,0(a6)
     2bc:	01c00613          	li	a2,28
     2c0:	00900313          	li	t1,9
     2c4:	04470713          	addi	a4,a4,68 # 4000044 <_stack_end+0x3eeb598>
     2c8:	000106b7          	lui	a3,0x10
     2cc:	ffc00893          	li	a7,-4
     2d0:	00c557b3          	srl	a5,a0,a2
     2d4:	00f7f793          	andi	a5,a5,15
     2d8:	03778593          	addi	a1,a5,55
     2dc:	00f36463          	bltu	t1,a5,2e4 <print_hex32+0x70>
     2e0:	03078593          	addi	a1,a5,48
     2e4:	00072783          	lw	a5,0(a4)
     2e8:	fed7eee3          	bltu	a5,a3,2e4 <print_hex32+0x70>
     2ec:	00b82023          	sw	a1,0(a6)
     2f0:	ffc60613          	addi	a2,a2,-4 # fffc <output_bmp+0xe730>
     2f4:	fd161ee3          	bne	a2,a7,2d0 <print_hex32+0x5c>
     2f8:	00008067          	ret

000002fc <handle_exception>:
     2fc:	00200793          	li	a5,2
     300:	18f80863          	beq	a6,a5,490 <handle_exception+0x194>
     304:	00b00793          	li	a5,11
     308:	12f80063          	beq	a6,a5,428 <handle_exception+0x12c>
     30c:	04000737          	lui	a4,0x4000
     310:	14081463          	bnez	a6,458 <handle_exception+0x15c>
     314:	04000837          	lui	a6,0x4000
     318:	00015637          	lui	a2,0x15
     31c:	a2460613          	addi	a2,a2,-1500 # 14a24 <output_bmp_len+0xcc>
     320:	00a00593          	li	a1,10
     324:	04470713          	addi	a4,a4,68 # 4000044 <_stack_end+0x3eeb598>
     328:	000106b7          	lui	a3,0x10
     32c:	04080813          	addi	a6,a6,64 # 4000040 <_stack_end+0x3eeb594>
     330:	00072783          	lw	a5,0(a4)
     334:	fed7eee3          	bltu	a5,a3,330 <handle_exception+0x34>
     338:	00b82023          	sw	a1,0(a6)
     33c:	00164583          	lbu	a1,1(a2)
     340:	00160613          	addi	a2,a2,1
     344:	fe0596e3          	bnez	a1,330 <handle_exception+0x34>
     348:	04000737          	lui	a4,0x4000
     34c:	04000837          	lui	a6,0x4000
     350:	00015637          	lui	a2,0x15
     354:	a9860613          	addi	a2,a2,-1384 # 14a98 <output_bmp_len+0x140>
     358:	04500593          	li	a1,69
     35c:	04470713          	addi	a4,a4,68 # 4000044 <_stack_end+0x3eeb598>
     360:	000106b7          	lui	a3,0x10
     364:	04080813          	addi	a6,a6,64 # 4000040 <_stack_end+0x3eeb594>
     368:	00072783          	lw	a5,0(a4)
     36c:	fed7eee3          	bltu	a5,a3,368 <handle_exception+0x6c>
     370:	00b82023          	sw	a1,0(a6)
     374:	00164583          	lbu	a1,1(a2)
     378:	00160613          	addi	a2,a2,1
     37c:	fe0596e3          	bnez	a1,368 <handle_exception+0x6c>
     380:	04000737          	lui	a4,0x4000
     384:	04470713          	addi	a4,a4,68 # 4000044 <_stack_end+0x3eeb598>
     388:	000106b7          	lui	a3,0x10
     38c:	00072783          	lw	a5,0(a4)
     390:	fed7eee3          	bltu	a5,a3,38c <handle_exception+0x90>
     394:	03000693          	li	a3,48
     398:	040007b7          	lui	a5,0x4000
     39c:	04000737          	lui	a4,0x4000
     3a0:	04d7a023          	sw	a3,64(a5) # 4000040 <_stack_end+0x3eeb594>
     3a4:	04470713          	addi	a4,a4,68 # 4000044 <_stack_end+0x3eeb598>
     3a8:	000106b7          	lui	a3,0x10
     3ac:	00072783          	lw	a5,0(a4)
     3b0:	fed7eee3          	bltu	a5,a3,3ac <handle_exception+0xb0>
     3b4:	04000837          	lui	a6,0x4000
     3b8:	04080813          	addi	a6,a6,64 # 4000040 <_stack_end+0x3eeb594>
     3bc:	04000737          	lui	a4,0x4000
     3c0:	07800793          	li	a5,120
     3c4:	00f82023          	sw	a5,0(a6)
     3c8:	01c00613          	li	a2,28
     3cc:	00900313          	li	t1,9
     3d0:	04470713          	addi	a4,a4,68 # 4000044 <_stack_end+0x3eeb598>
     3d4:	000106b7          	lui	a3,0x10
     3d8:	ffc00893          	li	a7,-4
     3dc:	00c557b3          	srl	a5,a0,a2
     3e0:	00f7f793          	andi	a5,a5,15
     3e4:	03778593          	addi	a1,a5,55
     3e8:	00f36463          	bltu	t1,a5,3f0 <handle_exception+0xf4>
     3ec:	03078593          	addi	a1,a5,48
     3f0:	00072783          	lw	a5,0(a4)
     3f4:	fed7eee3          	bltu	a5,a3,3f0 <handle_exception+0xf4>
     3f8:	00b82023          	sw	a1,0(a6)
     3fc:	ffc60613          	addi	a2,a2,-4
     400:	fd161ee3          	bne	a2,a7,3dc <handle_exception+0xe0>
     404:	04000737          	lui	a4,0x4000
     408:	04470713          	addi	a4,a4,68 # 4000044 <_stack_end+0x3eeb598>
     40c:	000106b7          	lui	a3,0x10
     410:	00072783          	lw	a5,0(a4)
     414:	fed7eee3          	bltu	a5,a3,410 <handle_exception+0x114>
     418:	040007b7          	lui	a5,0x4000
     41c:	00a00713          	li	a4,10
     420:	04e7a023          	sw	a4,64(a5) # 4000040 <_stack_end+0x3eeb594>
     424:	0000006f          	j	424 <handle_exception+0x128>
     428:	00400793          	li	a5,4
     42c:	0af88063          	beq	a7,a5,4cc <handle_exception+0x1d0>
     430:	0d089a63          	bne	a7,a6,504 <handle_exception+0x208>
     434:	04000737          	lui	a4,0x4000
     438:	04470713          	addi	a4,a4,68 # 4000044 <_stack_end+0x3eeb598>
     43c:	000106b7          	lui	a3,0x10
     440:	00072783          	lw	a5,0(a4)
     444:	fed7eee3          	bltu	a5,a3,440 <handle_exception+0x144>
     448:	040007b7          	lui	a5,0x4000
     44c:	0ff57513          	zext.b	a0,a0
     450:	04a7a023          	sw	a0,64(a5) # 4000040 <_stack_end+0x3eeb594>
     454:	00008067          	ret
     458:	04000837          	lui	a6,0x4000
     45c:	00015637          	lui	a2,0x15
     460:	a7860613          	addi	a2,a2,-1416 # 14a78 <output_bmp_len+0x120>
     464:	00a00593          	li	a1,10
     468:	04470713          	addi	a4,a4,68
     46c:	000106b7          	lui	a3,0x10
     470:	04080813          	addi	a6,a6,64 # 4000040 <_stack_end+0x3eeb594>
     474:	00072783          	lw	a5,0(a4)
     478:	fed7eee3          	bltu	a5,a3,474 <handle_exception+0x178>
     47c:	00b82023          	sw	a1,0(a6)
     480:	00164583          	lbu	a1,1(a2)
     484:	00160613          	addi	a2,a2,1
     488:	fe0596e3          	bnez	a1,474 <handle_exception+0x178>
     48c:	ebdff06f          	j	348 <handle_exception+0x4c>
     490:	04000737          	lui	a4,0x4000
     494:	04000837          	lui	a6,0x4000
     498:	00015637          	lui	a2,0x15
     49c:	a5460613          	addi	a2,a2,-1452 # 14a54 <output_bmp_len+0xfc>
     4a0:	00a00593          	li	a1,10
     4a4:	04470713          	addi	a4,a4,68 # 4000044 <_stack_end+0x3eeb598>
     4a8:	000106b7          	lui	a3,0x10
     4ac:	04080813          	addi	a6,a6,64 # 4000040 <_stack_end+0x3eeb594>
     4b0:	00072783          	lw	a5,0(a4)
     4b4:	fed7eee3          	bltu	a5,a3,4b0 <handle_exception+0x1b4>
     4b8:	00b82023          	sw	a1,0(a6)
     4bc:	00164583          	lbu	a1,1(a2)
     4c0:	00160613          	addi	a2,a2,1
     4c4:	fe0596e3          	bnez	a1,4b0 <handle_exception+0x1b4>
     4c8:	e81ff06f          	j	348 <handle_exception+0x4c>
     4cc:	00054603          	lbu	a2,0(a0)
     4d0:	02060a63          	beqz	a2,504 <handle_exception+0x208>
     4d4:	04000737          	lui	a4,0x4000
     4d8:	040005b7          	lui	a1,0x4000
     4dc:	04470713          	addi	a4,a4,68 # 4000044 <_stack_end+0x3eeb598>
     4e0:	000106b7          	lui	a3,0x10
     4e4:	04058593          	addi	a1,a1,64 # 4000040 <_stack_end+0x3eeb594>
     4e8:	00072783          	lw	a5,0(a4)
     4ec:	fed7eee3          	bltu	a5,a3,4e8 <handle_exception+0x1ec>
     4f0:	00c5a023          	sw	a2,0(a1)
     4f4:	00154603          	lbu	a2,1(a0)
     4f8:	00150513          	addi	a0,a0,1
     4fc:	fe0616e3          	bnez	a2,4e8 <handle_exception+0x1ec>
     500:	00008067          	ret
     504:	00008067          	ret

00000508 <nextprime>:
     508:	00200713          	li	a4,2
     50c:	00050793          	mv	a5,a0
     510:	02a74063          	blt	a4,a0,530 <nextprime+0x28>
     514:	00100513          	li	a0,1
     518:	00f05a63          	blez	a5,52c <nextprime+0x24>
     51c:	fff78793          	addi	a5,a5,-1
     520:	00f037b3          	snez	a5,a5
     524:	00278513          	addi	a0,a5,2
     528:	00008067          	ret
     52c:	00008067          	ret
     530:	00150793          	addi	a5,a0,1
     534:	0017e513          	ori	a0,a5,1
     538:	00300613          	li	a2,3
     53c:	02c567b3          	rem	a5,a0,a2
     540:	40155693          	srai	a3,a0,0x1
     544:	02078263          	beqz	a5,568 <nextprime+0x60>
     548:	00268693          	addi	a3,a3,2 # 10002 <output_bmp+0xe736>
     54c:	00300793          	li	a5,3
     550:	00c0006f          	j	55c <nextprime+0x54>
     554:	02f56733          	rem	a4,a0,a5
     558:	00070863          	beqz	a4,568 <nextprime+0x60>
     55c:	00178793          	addi	a5,a5,1
     560:	fef69ae3          	bne	a3,a5,554 <nextprime+0x4c>
     564:	00008067          	ret
     568:	00250513          	addi	a0,a0,2
     56c:	fd1ff06f          	j	53c <nextprime+0x34>

00000570 <blurring.constprop.0>:
     570:	81010113          	addi	sp,sp,-2032
     574:	fffed837          	lui	a6,0xfffed
     578:	fffee2b7          	lui	t0,0xfffee
     57c:	7e812423          	sw	s0,2024(sp)
     580:	7e912223          	sw	s1,2020(sp)
     584:	7f010413          	addi	s0,sp,2032
     588:	7f212023          	sw	s2,2016(sp)
     58c:	7d312e23          	sw	s3,2012(sp)
     590:	7d412c23          	sw	s4,2008(sp)
     594:	7d512a23          	sw	s5,2004(sp)
     598:	7da12023          	sw	s10,1984(sp)
     59c:	7bb12e23          	sw	s11,1980(sp)
     5a0:	7e112623          	sw	ra,2028(sp)
     5a4:	7d612823          	sw	s6,2000(sp)
     5a8:	7d712623          	sw	s7,1996(sp)
     5ac:	7d812423          	sw	s8,1992(sp)
     5b0:	7d912223          	sw	s9,1988(sp)
     5b4:	000029b7          	lui	s3,0x2
     5b8:	bb028293          	addi	t0,t0,-1104 # fffedbb0 <_stack_end+0xffed9104>
     5bc:	3c080793          	addi	a5,a6,960 # fffed3c0 <_stack_end+0xffed8914>
     5c0:	d5698d13          	addi	s10,s3,-682 # 1d56 <output_bmp+0x48a>
     5c4:	00510133          	add	sp,sp,t0
     5c8:	00878833          	add	a6,a5,s0
     5cc:	d5698993          	addi	s3,s3,-682
     5d0:	fc040d93          	addi	s11,s0,-64
     5d4:	ffd00a13          	li	s4,-3
     5d8:	0e900a93          	li	s5,233
     5dc:	13900493          	li	s1,313
     5e0:	13d00913          	li	s2,317
     5e4:	094afc63          	bgeu	s5,s4,67c <blurring.constprop.0+0x10c>
     5e8:	00080513          	mv	a0,a6
     5ec:	14000613          	li	a2,320
     5f0:	00098593          	mv	a1,s3
     5f4:	258000ef          	jal	84c <memcpy>
     5f8:	00050813          	mv	a6,a0
     5fc:	14080813          	addi	a6,a6,320
     600:	001a0a13          	addi	s4,s4,1
     604:	14098993          	addi	s3,s3,320
     608:	fdb81ee3          	bne	a6,s11,5e4 <blurring.constprop.0+0x74>
     60c:	fffed5b7          	lui	a1,0xfffed
     610:	3c058793          	addi	a5,a1,960 # fffed3c0 <_stack_end+0xffed8914>
     614:	00013637          	lui	a2,0x13
     618:	008785b3          	add	a1,a5,s0
     61c:	000d0513          	mv	a0,s10
     620:	c0060613          	addi	a2,a2,-1024 # 12c00 <output_bmp+0x11334>
     624:	228000ef          	jal	84c <memcpy>
     628:	fffed2b7          	lui	t0,0xfffed
     62c:	3c028293          	addi	t0,t0,960 # fffed3c0 <_stack_end+0xffed8914>
     630:	00540133          	add	sp,s0,t0
     634:	000122b7          	lui	t0,0x12
     638:	45028293          	addi	t0,t0,1104 # 12450 <output_bmp+0x10b84>
     63c:	00510133          	add	sp,sp,t0
     640:	7ec12083          	lw	ra,2028(sp)
     644:	7e812403          	lw	s0,2024(sp)
     648:	7e412483          	lw	s1,2020(sp)
     64c:	7e012903          	lw	s2,2016(sp)
     650:	7dc12983          	lw	s3,2012(sp)
     654:	7d812a03          	lw	s4,2008(sp)
     658:	7d412a83          	lw	s5,2004(sp)
     65c:	7d012b03          	lw	s6,2000(sp)
     660:	7cc12b83          	lw	s7,1996(sp)
     664:	7c812c03          	lw	s8,1992(sp)
     668:	7c412c83          	lw	s9,1988(sp)
     66c:	7c012d03          	lw	s10,1984(sp)
     670:	7bc12d83          	lw	s11,1980(sp)
     674:	7f010113          	addi	sp,sp,2032
     678:	00008067          	ret
     67c:	c3d98713          	addi	a4,s3,-963
     680:	ffd00793          	li	a5,-3
     684:	1af4e263          	bltu	s1,a5,828 <__heap_size+0x28>
     688:	00174c03          	lbu	s8,1(a4)
     68c:	00274b83          	lbu	s7,2(a4)
     690:	00374b03          	lbu	s6,3(a4)
     694:	00474083          	lbu	ra,4(a4)
     698:	00574383          	lbu	t2,5(a4)
     69c:	00674283          	lbu	t0,6(a4)
     6a0:	14074f83          	lbu	t6,320(a4)
     6a4:	14174f03          	lbu	t5,321(a4)
     6a8:	14274e83          	lbu	t4,322(a4)
     6ac:	14374e03          	lbu	t3,323(a4)
     6b0:	14474303          	lbu	t1,324(a4)
     6b4:	14574883          	lbu	a7,325(a4)
     6b8:	14674503          	lbu	a0,326(a4)
     6bc:	28074583          	lbu	a1,640(a4)
     6c0:	28174603          	lbu	a2,641(a4)
     6c4:	00074c83          	lbu	s9,0(a4)
     6c8:	00010693          	mv	a3,sp
     6cc:	fc010113          	addi	sp,sp,-64
     6d0:	018100a3          	sb	s8,1(sp)
     6d4:	01710123          	sb	s7,2(sp)
     6d8:	016101a3          	sb	s6,3(sp)
     6dc:	00110223          	sb	ra,4(sp)
     6e0:	007102a3          	sb	t2,5(sp)
     6e4:	00510323          	sb	t0,6(sp)
     6e8:	01f103a3          	sb	t6,7(sp)
     6ec:	01e10423          	sb	t5,8(sp)
     6f0:	01d104a3          	sb	t4,9(sp)
     6f4:	01c10523          	sb	t3,10(sp)
     6f8:	006105a3          	sb	t1,11(sp)
     6fc:	01110623          	sb	a7,12(sp)
     700:	00a106a3          	sb	a0,13(sp)
     704:	00b10723          	sb	a1,14(sp)
     708:	00c107a3          	sb	a2,15(sp)
     70c:	01910023          	sb	s9,0(sp)
     710:	28274c83          	lbu	s9,642(a4)
     714:	28374c03          	lbu	s8,643(a4)
     718:	28474b83          	lbu	s7,644(a4)
     71c:	28574b03          	lbu	s6,645(a4)
     720:	28674083          	lbu	ra,646(a4)
     724:	3c074383          	lbu	t2,960(a4)
     728:	3c174283          	lbu	t0,961(a4)
     72c:	3c274f83          	lbu	t6,962(a4)
     730:	3c374f03          	lbu	t5,963(a4)
     734:	3c474e83          	lbu	t4,964(a4)
     738:	3c574e03          	lbu	t3,965(a4)
     73c:	3c674303          	lbu	t1,966(a4)
     740:	50074883          	lbu	a7,1280(a4)
     744:	50174503          	lbu	a0,1281(a4)
     748:	50274583          	lbu	a1,1282(a4)
     74c:	50374603          	lbu	a2,1283(a4)
     750:	018108a3          	sb	s8,17(sp)
     754:	01710923          	sb	s7,18(sp)
     758:	016109a3          	sb	s6,19(sp)
     75c:	00110a23          	sb	ra,20(sp)
     760:	00710aa3          	sb	t2,21(sp)
     764:	00510b23          	sb	t0,22(sp)
     768:	01f10ba3          	sb	t6,23(sp)
     76c:	01e10c23          	sb	t5,24(sp)
     770:	01d10ca3          	sb	t4,25(sp)
     774:	01c10d23          	sb	t3,26(sp)
     778:	00610da3          	sb	t1,27(sp)
     77c:	01110e23          	sb	a7,28(sp)
     780:	00a10ea3          	sb	a0,29(sp)
     784:	00b10f23          	sb	a1,30(sp)
     788:	00c10fa3          	sb	a2,31(sp)
     78c:	01910823          	sb	s9,16(sp)
     790:	50474c83          	lbu	s9,1284(a4)
     794:	50574c03          	lbu	s8,1285(a4)
     798:	50674b83          	lbu	s7,1286(a4)
     79c:	64074b03          	lbu	s6,1600(a4)
     7a0:	64174083          	lbu	ra,1601(a4)
     7a4:	64274383          	lbu	t2,1602(a4)
     7a8:	64374283          	lbu	t0,1603(a4)
     7ac:	64474f83          	lbu	t6,1604(a4)
     7b0:	64574f03          	lbu	t5,1605(a4)
     7b4:	64674e83          	lbu	t4,1606(a4)
     7b8:	78074e03          	lbu	t3,1920(a4)
     7bc:	78174303          	lbu	t1,1921(a4)
     7c0:	78274883          	lbu	a7,1922(a4)
     7c4:	78374503          	lbu	a0,1923(a4)
     7c8:	78474583          	lbu	a1,1924(a4)
     7cc:	78574603          	lbu	a2,1925(a4)
     7d0:	03910023          	sb	s9,32(sp)
     7d4:	038100a3          	sb	s8,33(sp)
     7d8:	03710123          	sb	s7,34(sp)
     7dc:	036101a3          	sb	s6,35(sp)
     7e0:	02110223          	sb	ra,36(sp)
     7e4:	027102a3          	sb	t2,37(sp)
     7e8:	02510323          	sb	t0,38(sp)
     7ec:	03f103a3          	sb	t6,39(sp)
     7f0:	03e10423          	sb	t5,40(sp)
     7f4:	03d104a3          	sb	t4,41(sp)
     7f8:	03c10523          	sb	t3,42(sp)
     7fc:	026105a3          	sb	t1,43(sp)
     800:	03110623          	sb	a7,44(sp)
     804:	02a106a3          	sb	a0,45(sp)
     808:	02b10723          	sb	a1,46(sp)
     80c:	02c107a3          	sb	a2,47(sp)
     810:	78674603          	lbu	a2,1926(a4)
     814:	00178793          	addi	a5,a5,1
     818:	00170713          	addi	a4,a4,1
     81c:	02c10823          	sb	a2,48(sp)
     820:	00068113          	mv	sp,a3
     824:	e6f4f2e3          	bgeu	s1,a5,688 <blurring.constprop.0+0x118>
     828:	3c374603          	lbu	a2,963(a4)
     82c:	00f806b3          	add	a3,a6,a5
     830:	00178793          	addi	a5,a5,1
     834:	00c681a3          	sb	a2,3(a3)
     838:	00170713          	addi	a4,a4,1
     83c:	e52794e3          	bne	a5,s2,684 <blurring.constprop.0+0x114>
     840:	dbdff06f          	j	5fc <blurring.constprop.0+0x8c>

00000844 <handle_interrupt>:
     844:	00008067          	ret

00000848 <labinit>:
     848:	00008067          	ret

0000084c <memcpy>:
     84c:	0a060863          	beqz	a2,8fc <memcpy+0xb0>
     850:	fff60793          	addi	a5,a2,-1
     854:	00600713          	li	a4,6
     858:	08f77463          	bgeu	a4,a5,8e0 <memcpy+0x94>
     85c:	00b567b3          	or	a5,a0,a1
     860:	0037f793          	andi	a5,a5,3
     864:	06079e63          	bnez	a5,8e0 <memcpy+0x94>
     868:	00158793          	addi	a5,a1,1
     86c:	40f507b3          	sub	a5,a0,a5
     870:	0037b793          	sltiu	a5,a5,3
     874:	06079663          	bnez	a5,8e0 <memcpy+0x94>
     878:	ffc67813          	andi	a6,a2,-4
     87c:	00058793          	mv	a5,a1
     880:	00050713          	mv	a4,a0
     884:	010588b3          	add	a7,a1,a6
     888:	0007a683          	lw	a3,0(a5)
     88c:	00478793          	addi	a5,a5,4
     890:	00470713          	addi	a4,a4,4
     894:	fed72e23          	sw	a3,-4(a4)
     898:	fef898e3          	bne	a7,a5,888 <memcpy+0x3c>
     89c:	07060063          	beq	a2,a6,8fc <memcpy+0xb0>
     8a0:	0008c683          	lbu	a3,0(a7)
     8a4:	01050733          	add	a4,a0,a6
     8a8:	00180793          	addi	a5,a6,1
     8ac:	00d70023          	sb	a3,0(a4)
     8b0:	04c7f663          	bgeu	a5,a2,8fc <memcpy+0xb0>
     8b4:	00f58733          	add	a4,a1,a5
     8b8:	00074703          	lbu	a4,0(a4)
     8bc:	00f507b3          	add	a5,a0,a5
     8c0:	00280813          	addi	a6,a6,2
     8c4:	00e78023          	sb	a4,0(a5)
     8c8:	02c87a63          	bgeu	a6,a2,8fc <memcpy+0xb0>
     8cc:	010585b3          	add	a1,a1,a6
     8d0:	0005c783          	lbu	a5,0(a1)
     8d4:	01050833          	add	a6,a0,a6
     8d8:	00f80023          	sb	a5,0(a6)
     8dc:	00008067          	ret
     8e0:	00050793          	mv	a5,a0
     8e4:	00c58633          	add	a2,a1,a2
     8e8:	0005c703          	lbu	a4,0(a1)
     8ec:	00158593          	addi	a1,a1,1
     8f0:	00178793          	addi	a5,a5,1
     8f4:	fee78fa3          	sb	a4,-1(a5)
     8f8:	fec598e3          	bne	a1,a2,8e8 <memcpy+0x9c>
     8fc:	00008067          	ret

00000900 <memset>:
     900:	ff010113          	addi	sp,sp,-16
     904:	00812423          	sw	s0,8(sp)
     908:	00112623          	sw	ra,12(sp)
     90c:	00050413          	mv	s0,a0
     910:	00060663          	beqz	a2,91c <memset+0x1c>
     914:	0ff5f593          	zext.b	a1,a1
     918:	fe9ff0ef          	jal	900 <memset>
     91c:	00c12083          	lw	ra,12(sp)
     920:	00040513          	mv	a0,s0
     924:	00812403          	lw	s0,8(sp)
     928:	01010113          	addi	sp,sp,16
     92c:	00008067          	ret

00000930 <my_min>:
     930:	00050793          	mv	a5,a0
     934:	00058513          	mv	a0,a1
     938:	00b7d463          	bge	a5,a1,940 <my_min+0x10>
     93c:	00078513          	mv	a0,a5
     940:	00008067          	ret

00000944 <my_max>:
     944:	00050793          	mv	a5,a0
     948:	00058513          	mv	a0,a1
     94c:	00f5d463          	bge	a1,a5,954 <my_max+0x10>
     950:	00078513          	mv	a0,a5
     954:	00008067          	ret

00000958 <blurringKernel>:
     958:	10d05463          	blez	a3,a60 <blurringKernel+0x108>
     95c:	00269693          	slli	a3,a3,0x2
     960:	00d58eb3          	add	t4,a1,a3
     964:	00000e13          	li	t3,0
     968:	00000693          	li	a3,0
     96c:	00000313          	li	t1,0
     970:	00054783          	lbu	a5,0(a0)
     974:	0005a803          	lw	a6,0(a1)
     978:	00458593          	addi	a1,a1,4
     97c:	0027d713          	srli	a4,a5,0x2
     980:	0037f893          	andi	a7,a5,3
     984:	00777713          	andi	a4,a4,7
     988:	0057d793          	srli	a5,a5,0x5
     98c:	030888b3          	mul	a7,a7,a6
     990:	00150513          	addi	a0,a0,1
     994:	03070733          	mul	a4,a4,a6
     998:	01130333          	add	t1,t1,a7
     99c:	030787b3          	mul	a5,a5,a6
     9a0:	00e686b3          	add	a3,a3,a4
     9a4:	00fe0e33          	add	t3,t3,a5
     9a8:	fcbe94e3          	bne	t4,a1,970 <blurringKernel+0x18>
     9ac:	01f65793          	srli	a5,a2,0x1f
     9b0:	00c787b3          	add	a5,a5,a2
     9b4:	4017d793          	srai	a5,a5,0x1
     9b8:	00d786b3          	add	a3,a5,a3
     9bc:	02c6c6b3          	div	a3,a3,a2
     9c0:	00700713          	li	a4,7
     9c4:	00678333          	add	t1,a5,t1
     9c8:	01c787b3          	add	a5,a5,t3
     9cc:	04d75063          	bge	a4,a3,a0c <blurringKernel+0xb4>
     9d0:	02c7c7b3          	div	a5,a5,a2
     9d4:	00700693          	li	a3,7
     9d8:	00700713          	li	a4,7
     9dc:	00269513          	slli	a0,a3,0x2
     9e0:	04f75463          	bge	a4,a5,a28 <blurringKernel+0xd0>
     9e4:	02c34633          	div	a2,t1,a2
     9e8:	00700793          	li	a5,7
     9ec:	00579793          	slli	a5,a5,0x5
     9f0:	00300713          	li	a4,3
     9f4:	00f50533          	add	a0,a0,a5
     9f8:	04c75863          	bge	a4,a2,a48 <blurringKernel+0xf0>
     9fc:	00300613          	li	a2,3
     a00:	00c50533          	add	a0,a0,a2
     a04:	0ff57513          	zext.b	a0,a0
     a08:	00008067          	ret
     a0c:	02c7c7b3          	div	a5,a5,a2
     a10:	fff6c713          	not	a4,a3
     a14:	41f75713          	srai	a4,a4,0x1f
     a18:	00e6f6b3          	and	a3,a3,a4
     a1c:	00700713          	li	a4,7
     a20:	00269513          	slli	a0,a3,0x2
     a24:	fcf740e3          	blt	a4,a5,9e4 <blurringKernel+0x8c>
     a28:	02c34633          	div	a2,t1,a2
     a2c:	fff7c713          	not	a4,a5
     a30:	41f75713          	srai	a4,a4,0x1f
     a34:	00e7f7b3          	and	a5,a5,a4
     a38:	00579793          	slli	a5,a5,0x5
     a3c:	00300713          	li	a4,3
     a40:	00f50533          	add	a0,a0,a5
     a44:	fac74ce3          	blt	a4,a2,9fc <blurringKernel+0xa4>
     a48:	fff64793          	not	a5,a2
     a4c:	41f7d793          	srai	a5,a5,0x1f
     a50:	00f67633          	and	a2,a2,a5
     a54:	00c50533          	add	a0,a0,a2
     a58:	0ff57513          	zext.b	a0,a0
     a5c:	00008067          	ret
     a60:	00000e13          	li	t3,0
     a64:	00000693          	li	a3,0
     a68:	00000313          	li	t1,0
     a6c:	f41ff06f          	j	9ac <blurringKernel+0x54>

00000a70 <blurring>:
     a70:	81010113          	addi	sp,sp,-2032
     a74:	fffedf37          	lui	t5,0xfffed
     a78:	7e812423          	sw	s0,2024(sp)
     a7c:	7e912223          	sw	s1,2020(sp)
     a80:	7d312e23          	sw	s3,2012(sp)
     a84:	7d512a23          	sw	s5,2004(sp)
     a88:	7d812423          	sw	s8,1992(sp)
     a8c:	7d912223          	sw	s9,1988(sp)
     a90:	7da12023          	sw	s10,1984(sp)
     a94:	7bb12e23          	sw	s11,1980(sp)
     a98:	7f010413          	addi	s0,sp,2032
     a9c:	7e112623          	sw	ra,2028(sp)
     aa0:	7f212023          	sw	s2,2016(sp)
     aa4:	7d412c23          	sw	s4,2008(sp)
     aa8:	7d612823          	sw	s6,2000(sp)
     aac:	7d712623          	sw	s7,1996(sp)
     ab0:	00161793          	slli	a5,a2,0x1
     ab4:	320f0713          	addi	a4,t5,800 # fffed320 <_stack_end+0xffed8874>
     ab8:	00060993          	mv	s3,a2
     abc:	00870733          	add	a4,a4,s0
     ac0:	00178613          	addi	a2,a5,1
     ac4:	00f72023          	sw	a5,0(a4)
     ac8:	02c60733          	mul	a4,a2,a2
     acc:	ebf00893          	li	a7,-321
     ad0:	00050493          	mv	s1,a0
     ad4:	00299693          	slli	a3,s3,0x2
     ad8:	318f0513          	addi	a0,t5,792
     adc:	013686b3          	add	a3,a3,s3
     ae0:	00058d13          	mv	s10,a1
     ae4:	00850533          	add	a0,a0,s0
     ae8:	33cf0593          	addi	a1,t5,828
     aec:	008585b3          	add	a1,a1,s0
     af0:	031988b3          	mul	a7,s3,a7
     af4:	00271313          	slli	t1,a4,0x2
     af8:	00652023          	sw	t1,0(a0)
     afc:	00669513          	slli	a0,a3,0x6
     b00:	413006b3          	neg	a3,s3
     b04:	00d5a023          	sw	a3,0(a1)
     b08:	0f000693          	li	a3,240
     b0c:	32cf0593          	addi	a1,t5,812
     b10:	41368db3          	sub	s11,a3,s3
     b14:	008585b3          	add	a1,a1,s0
     b18:	009886b3          	add	a3,a7,s1
     b1c:	00d5a023          	sw	a3,0(a1)
     b20:	00399e93          	slli	t4,s3,0x3
     b24:	31cf0593          	addi	a1,t5,796
     b28:	004e8693          	addi	a3,t4,4
     b2c:	008585b3          	add	a1,a1,s0
     b30:	00d5a023          	sw	a3,0(a1)
     b34:	334f0693          	addi	a3,t5,820
     b38:	008686b3          	add	a3,a3,s0
     b3c:	fffed7b7          	lui	a5,0xfffed
     b40:	0006a023          	sw	zero,0(a3)
     b44:	3c078793          	addi	a5,a5,960 # fffed3c0 <_stack_end+0xffed8914>
     b48:	328f0693          	addi	a3,t5,808
     b4c:	008787b3          	add	a5,a5,s0
     b50:	008686b3          	add	a3,a3,s0
     b54:	00f6a023          	sw	a5,0(a3)
     b58:	00f70e13          	addi	t3,a4,15
     b5c:	338f0693          	addi	a3,t5,824
     b60:	ff0e7793          	andi	a5,t3,-16
     b64:	008686b3          	add	a3,a3,s0
     b68:	00f6a023          	sw	a5,0(a3)
     b6c:	00f30313          	addi	t1,t1,15
     b70:	330f0693          	addi	a3,t5,816
     b74:	ff037793          	andi	a5,t1,-16
     b78:	008686b3          	add	a3,a3,s0
     b7c:	01f65813          	srli	a6,a2,0x1f
     b80:	00f6a023          	sw	a5,0(a3)
     b84:	00c80833          	add	a6,a6,a2
     b88:	314f0693          	addi	a3,t5,788
     b8c:	40185793          	srai	a5,a6,0x1
     b90:	008686b3          	add	a3,a3,s0
     b94:	00f6a023          	sw	a5,0(a3)
     b98:	41348cb3          	sub	s9,s1,s3
     b9c:	fffee2b7          	lui	t0,0xfffee
     ba0:	324f0693          	addi	a3,t5,804
     ba4:	310f0793          	addi	a5,t5,784
     ba8:	00ac8cb3          	add	s9,s9,a0
     bac:	00000a93          	li	s5,0
     bb0:	af028293          	addi	t0,t0,-1296 # fffedaf0 <_stack_end+0xffed9044>
     bb4:	008686b3          	add	a3,a3,s0
     bb8:	008787b3          	add	a5,a5,s0
     bbc:	000c8c13          	mv	s8,s9
     bc0:	000d0313          	mv	t1,s10
     bc4:	00098c93          	mv	s9,s3
     bc8:	000a8d13          	mv	s10,s5
     bcc:	00510133          	add	sp,sp,t0
     bd0:	00c6a023          	sw	a2,0(a3)
     bd4:	0097a023          	sw	s1,0(a5)
     bd8:	00070a93          	mv	s5,a4
     bdc:	00048993          	mv	s3,s1
     be0:	fffed737          	lui	a4,0xfffed
     be4:	00070693          	mv	a3,a4
     be8:	32870793          	addi	a5,a4,808 # fffed328 <_stack_end+0xffed887c>
     bec:	33470713          	addi	a4,a4,820
     bf0:	008787b3          	add	a5,a5,s0
     bf4:	00870733          	add	a4,a4,s0
     bf8:	0007a783          	lw	a5,0(a5)
     bfc:	00072703          	lw	a4,0(a4)
     c00:	002d1b93          	slli	s7,s10,0x2
     c04:	01ab8bb3          	add	s7,s7,s10
     c08:	00e78933          	add	s2,a5,a4
     c0c:	32c68793          	addi	a5,a3,812
     c10:	008787b3          	add	a5,a5,s0
     c14:	0007a783          	lw	a5,0(a5)
     c18:	006b9b93          	slli	s7,s7,0x6
     c1c:	00068713          	mv	a4,a3
     c20:	34068693          	addi	a3,a3,832
     c24:	00fb87b3          	add	a5,s7,a5
     c28:	008686b3          	add	a3,a3,s0
     c2c:	00f6a023          	sw	a5,0(a3)
     c30:	6b905c63          	blez	s9,12e8 <blurring+0x878>
     c34:	0009c603          	lbu	a2,0(s3)
     c38:	34470713          	addi	a4,a4,836
     c3c:	140c0793          	addi	a5,s8,320
     c40:	00870733          	add	a4,a4,s0
     c44:	00190913          	addi	s2,s2,1
     c48:	00100493          	li	s1,1
     c4c:	00f72023          	sw	a5,0(a4)
     c50:	fec90fa3          	sb	a2,-1(s2)
     c54:	2794d063          	bge	s1,s9,eb4 <blurring+0x444>
     c58:	00998633          	add	a2,s3,s1
     c5c:	00064603          	lbu	a2,0(a2)
     c60:	00c90023          	sb	a2,0(s2)
     c64:	00148493          	addi	s1,s1,1
     c68:	14000613          	li	a2,320
     c6c:	00190913          	addi	s2,s2,1
     c70:	fec492e3          	bne	s1,a2,c54 <blurring+0x1e4>
     c74:	fffed737          	lui	a4,0xfffed
     c78:	34470793          	addi	a5,a4,836 # fffed344 <_stack_end+0xffed8898>
     c7c:	008787b3          	add	a5,a5,s0
     c80:	0007ac03          	lw	s8,0(a5)
     c84:	33470793          	addi	a5,a4,820
     c88:	008787b3          	add	a5,a5,s0
     c8c:	0007a783          	lw	a5,0(a5)
     c90:	33470713          	addi	a4,a4,820
     c94:	00870733          	add	a4,a4,s0
     c98:	14078793          	addi	a5,a5,320
     c9c:	001d0d13          	addi	s10,s10,1
     ca0:	0f000613          	li	a2,240
     ca4:	00f72023          	sw	a5,0(a4)
     ca8:	14098993          	addi	s3,s3,320
     cac:	f2cd1ae3          	bne	s10,a2,be0 <blurring+0x170>
     cb0:	fffed7b7          	lui	a5,0xfffed
     cb4:	31078793          	addi	a5,a5,784 # fffed310 <_stack_end+0xffed8864>
     cb8:	008787b3          	add	a5,a5,s0
     cbc:	0007a483          	lw	s1,0(a5)
     cc0:	fffed5b7          	lui	a1,0xfffed
     cc4:	3c058793          	addi	a5,a1,960 # fffed3c0 <_stack_end+0xffed8914>
     cc8:	00013637          	lui	a2,0x13
     ccc:	008785b3          	add	a1,a5,s0
     cd0:	00048513          	mv	a0,s1
     cd4:	c0060613          	addi	a2,a2,-1024 # 12c00 <output_bmp+0x11334>
     cd8:	b75ff0ef          	jal	84c <memcpy>
     cdc:	fffed2b7          	lui	t0,0xfffed
     ce0:	30028293          	addi	t0,t0,768 # fffed300 <_stack_end+0xffed8854>
     ce4:	00540133          	add	sp,s0,t0
     ce8:	000122b7          	lui	t0,0x12
     cec:	51028293          	addi	t0,t0,1296 # 12510 <output_bmp+0x10c44>
     cf0:	00510133          	add	sp,sp,t0
     cf4:	7ec12083          	lw	ra,2028(sp)
     cf8:	7e812403          	lw	s0,2024(sp)
     cfc:	7e412483          	lw	s1,2020(sp)
     d00:	7e012903          	lw	s2,2016(sp)
     d04:	7dc12983          	lw	s3,2012(sp)
     d08:	7d812a03          	lw	s4,2008(sp)
     d0c:	7d412a83          	lw	s5,2004(sp)
     d10:	7d012b03          	lw	s6,2000(sp)
     d14:	7cc12b83          	lw	s7,1996(sp)
     d18:	7c812c03          	lw	s8,1992(sp)
     d1c:	7c412c83          	lw	s9,1988(sp)
     d20:	7c012d03          	lw	s10,1984(sp)
     d24:	7bc12d83          	lw	s11,1980(sp)
     d28:	7f010113          	addi	sp,sp,2032
     d2c:	00008067          	ret
     d30:	001bc603          	lbu	a2,1(s7)
     d34:	000bcf03          	lbu	t5,0(s7)
     d38:	002bce83          	lbu	t4,2(s7)
     d3c:	003bce03          	lbu	t3,3(s7)
     d40:	004bc883          	lbu	a7,4(s7)
     d44:	00565393          	srli	t2,a2,0x5
     d48:	005bc583          	lbu	a1,5(s7)
     d4c:	005f5b13          	srli	s6,t5,0x5
     d50:	00367f93          	andi	t6,a2,3
     d54:	002f5093          	srli	ra,t5,0x2
     d58:	00165613          	srli	a2,a2,0x1
     d5c:	00139393          	slli	t2,t2,0x1
     d60:	01638733          	add	a4,t2,s6
     d64:	005ed793          	srli	a5,t4,0x5
     d68:	002edb13          	srli	s6,t4,0x2
     d6c:	001f9f93          	slli	t6,t6,0x1
     d70:	00e67513          	andi	a0,a2,14
     d74:	005e5693          	srli	a3,t3,0x5
     d78:	003f7f13          	andi	t5,t5,3
     d7c:	0070f093          	andi	ra,ra,7
     d80:	006bc383          	lbu	t2,6(s7)
     d84:	007bc603          	lbu	a2,7(s7)
     d88:	01ef8f33          	add	t5,t6,t5
     d8c:	001500b3          	add	ra,a0,ra
     d90:	003efe93          	andi	t4,t4,3
     d94:	007b7f93          	andi	t6,s6,7
     d98:	00e78733          	add	a4,a5,a4
     d9c:	003e7b13          	andi	s6,t3,3
     da0:	0058d793          	srli	a5,a7,0x5
     da4:	001e5e13          	srli	t3,t3,0x1
     da8:	00169693          	slli	a3,a3,0x1
     dac:	01ee8f33          	add	t5,t4,t5
     db0:	001f8fb3          	add	t6,t6,ra
     db4:	001b1e93          	slli	t4,s6,0x1
     db8:	0038f093          	andi	ra,a7,3
     dbc:	00279b13          	slli	s6,a5,0x2
     dc0:	00ee7e13          	andi	t3,t3,14
     dc4:	0055d793          	srli	a5,a1,0x5
     dc8:	00e68733          	add	a4,a3,a4
     dcc:	008bc803          	lbu	a6,8(s7)
     dd0:	01fe0e33          	add	t3,t3,t6
     dd4:	01ee8eb3          	add	t4,t4,t5
     dd8:	00209093          	slli	ra,ra,0x2
     ddc:	0035ff13          	andi	t5,a1,3
     de0:	00eb0b33          	add	s6,s6,a4
     de4:	00179f93          	slli	t6,a5,0x1
     de8:	01c8f893          	andi	a7,a7,28
     dec:	0015d593          	srli	a1,a1,0x1
     df0:	01d08eb3          	add	t4,ra,t4
     df4:	01c888b3          	add	a7,a7,t3
     df8:	016f80b3          	add	ra,t6,s6
     dfc:	001f1e13          	slli	t3,t5,0x1
     e00:	0053df93          	srli	t6,t2,0x5
     e04:	0023df13          	srli	t5,t2,0x2
     e08:	00565b13          	srli	s6,a2,0x5
     e0c:	00e5f593          	andi	a1,a1,14
     e10:	01de0e33          	add	t3,t3,t4
     e14:	011585b3          	add	a1,a1,a7
     e18:	0033f393          	andi	t2,t2,3
     e1c:	00367893          	andi	a7,a2,3
     e20:	007f7f13          	andi	t5,t5,7
     e24:	00165613          	srli	a2,a2,0x1
     e28:	001f8fb3          	add	t6,t6,ra
     e2c:	001b1b13          	slli	s6,s6,0x1
     e30:	01c383b3          	add	t2,t2,t3
     e34:	00bf0f33          	add	t5,t5,a1
     e38:	00285e13          	srli	t3,a6,0x2
     e3c:	00e67593          	andi	a1,a2,14
     e40:	00189893          	slli	a7,a7,0x1
     e44:	00585613          	srli	a2,a6,0x5
     e48:	01fb0b33          	add	s6,s6,t6
     e4c:	01e58eb3          	add	t4,a1,t5
     e50:	007888b3          	add	a7,a7,t2
     e54:	00387813          	andi	a6,a6,3
     e58:	007e7593          	andi	a1,t3,7
     e5c:	01660633          	add	a2,a2,s6
     e60:	01180833          	add	a6,a6,a7
     e64:	01d585b3          	add	a1,a1,t4
     e68:	00860613          	addi	a2,a2,8
     e6c:	00880813          	addi	a6,a6,8
     e70:	00858593          	addi	a1,a1,8
     e74:	40465613          	srai	a2,a2,0x4
     e78:	00561613          	slli	a2,a2,0x5
     e7c:	40485813          	srai	a6,a6,0x4
     e80:	4045d593          	srai	a1,a1,0x4
     e84:	01060633          	add	a2,a2,a6
     e88:	00259593          	slli	a1,a1,0x2
     e8c:	fffed7b7          	lui	a5,0xfffed
     e90:	00c58633          	add	a2,a1,a2
     e94:	34c78793          	addi	a5,a5,844 # fffed34c <_stack_end+0xffed88a0>
     e98:	00c90023          	sb	a2,0(s2)
     e9c:	008787b3          	add	a5,a5,s0
     ea0:	00148493          	addi	s1,s1,1
     ea4:	14000613          	li	a2,320
     ea8:	00190913          	addi	s2,s2,1
     eac:	0007a103          	lw	sp,0(a5)
     eb0:	dcc482e3          	beq	s1,a2,c74 <blurring+0x204>
     eb4:	db9d42e3          	blt	s10,s9,c58 <blurring+0x1e8>
     eb8:	14000613          	li	a2,320
     ebc:	41960633          	sub	a2,a2,s9
     ec0:	d8c4dce3          	bge	s1,a2,c58 <blurring+0x1e8>
     ec4:	d9bd5ae3          	bge	s10,s11,c58 <blurring+0x1e8>
     ec8:	fffed737          	lui	a4,0xfffed
     ecc:	34c70793          	addi	a5,a4,844 # fffed34c <_stack_end+0xffed88a0>
     ed0:	008787b3          	add	a5,a5,s0
     ed4:	0027a023          	sw	sp,0(a5)
     ed8:	33870793          	addi	a5,a4,824
     edc:	008787b3          	add	a5,a5,s0
     ee0:	0007a783          	lw	a5,0(a5)
     ee4:	40f10133          	sub	sp,sp,a5
     ee8:	33c70793          	addi	a5,a4,828
     eec:	008787b3          	add	a5,a5,s0
     ef0:	0007a783          	lw	a5,0(a5)
     ef4:	00010b93          	mv	s7,sp
     ef8:	40fcc863          	blt	s9,a5,1308 <blurring+0x898>
     efc:	34070793          	addi	a5,a4,832
     f00:	008787b3          	add	a5,a5,s0
     f04:	0007a783          	lw	a5,0(a5)
     f08:	001c8613          	addi	a2,s9,1
     f0c:	01960a33          	add	s4,a2,s9
     f10:	00978c33          	add	s8,a5,s1
     f14:	34470793          	addi	a5,a4,836
     f18:	008787b3          	add	a5,a5,s0
     f1c:	0007a783          	lw	a5,0(a5)
     f20:	00010893          	mv	a7,sp
     f24:	00978b33          	add	s6,a5,s1
     f28:	34870793          	addi	a5,a4,840
     f2c:	008787b3          	add	a5,a5,s0
     f30:	0097a023          	sw	s1,0(a5)
     f34:	000a0493          	mv	s1,s4
     f38:	00030a13          	mv	s4,t1
     f3c:	000c0593          	mv	a1,s8
     f40:	00088513          	mv	a0,a7
     f44:	00048613          	mv	a2,s1
     f48:	905ff0ef          	jal	84c <memcpy>
     f4c:	140c0c13          	addi	s8,s8,320
     f50:	009508b3          	add	a7,a0,s1
     f54:	ff6c14e3          	bne	s8,s6,f3c <blurring+0x4cc>
     f58:	fffed7b7          	lui	a5,0xfffed
     f5c:	34878793          	addi	a5,a5,840 # fffed348 <_stack_end+0xffed889c>
     f60:	008787b3          	add	a5,a5,s0
     f64:	0007a483          	lw	s1,0(a5)
     f68:	000a0313          	mv	t1,s4
     f6c:	140a0e63          	beqz	s4,10c8 <blurring+0x658>
     f70:	00100613          	li	a2,1
     f74:	02c30463          	beq	t1,a2,f9c <blurring+0x52c>
     f78:	00200593          	li	a1,2
     f7c:	26b30e63          	beq	t1,a1,11f8 <blurring+0x788>
     f80:	00300613          	li	a2,3
     f84:	52c30c63          	beq	t1,a2,14bc <blurring+0xa4c>
     f88:	fffed7b7          	lui	a5,0xfffed
     f8c:	34c78793          	addi	a5,a5,844 # fffed34c <_stack_end+0xffed88a0>
     f90:	008787b3          	add	a5,a5,s0
     f94:	0007a103          	lw	sp,0(a5)
     f98:	ccdff06f          	j	c64 <blurring+0x1f4>
     f9c:	d86c8ae3          	beq	s9,t1,d30 <blurring+0x2c0>
     fa0:	00200613          	li	a2,2
     fa4:	fecc92e3          	bne	s9,a2,f88 <blurring+0x518>
     fa8:	fffed5b7          	lui	a1,0xfffed
     fac:	00015637          	lui	a2,0x15
     fb0:	95c60613          	addi	a2,a2,-1700 # 1495c <output_bmp_len+0x4>
     fb4:	35c58793          	addi	a5,a1,860 # fffed35c <_stack_end+0xffed88b0>
     fb8:	008785b3          	add	a1,a5,s0
     fbc:	06460f93          	addi	t6,a2,100
     fc0:	00062803          	lw	a6,0(a2)
     fc4:	00462503          	lw	a0,4(a2)
     fc8:	00862683          	lw	a3,8(a2)
     fcc:	00c62703          	lw	a4,12(a2)
     fd0:	01062783          	lw	a5,16(a2)
     fd4:	0105a023          	sw	a6,0(a1)
     fd8:	00a5a223          	sw	a0,4(a1)
     fdc:	00d5a423          	sw	a3,8(a1)
     fe0:	00e5a623          	sw	a4,12(a1)
     fe4:	00f5a823          	sw	a5,16(a1)
     fe8:	01460613          	addi	a2,a2,20
     fec:	01458593          	addi	a1,a1,20
     ff0:	fdf618e3          	bne	a2,t6,fc0 <blurring+0x550>
     ff4:	fffed8b7          	lui	a7,0xfffed
     ff8:	35c88793          	addi	a5,a7,860 # fffed35c <_stack_end+0xffed88b0>
     ffc:	008788b3          	add	a7,a5,s0
    1000:	000b8813          	mv	a6,s7
    1004:	06488093          	addi	ra,a7,100
    1008:	00000393          	li	t2,0
    100c:	00000f13          	li	t5,0
    1010:	00000f93          	li	t6,0
    1014:	00084783          	lbu	a5,0(a6)
    1018:	0008a683          	lw	a3,0(a7)
    101c:	00488893          	addi	a7,a7,4
    1020:	0027d713          	srli	a4,a5,0x2
    1024:	0037f613          	andi	a2,a5,3
    1028:	00777713          	andi	a4,a4,7
    102c:	0057d793          	srli	a5,a5,0x5
    1030:	02d60633          	mul	a2,a2,a3
    1034:	00180813          	addi	a6,a6,1
    1038:	02d70733          	mul	a4,a4,a3
    103c:	00cf8fb3          	add	t6,t6,a2
    1040:	02d787b3          	mul	a5,a5,a3
    1044:	00ef0f33          	add	t5,t5,a4
    1048:	00f383b3          	add	t2,t2,a5
    104c:	fc1894e3          	bne	a7,ra,1014 <blurring+0x5a4>
    1050:	08038393          	addi	t2,t2,128
    1054:	41f3d613          	srai	a2,t2,0x1f
    1058:	0ff67613          	zext.b	a2,a2
    105c:	00760633          	add	a2,a2,t2
    1060:	40865613          	srai	a2,a2,0x8
    1064:	00700593          	li	a1,7
    1068:	080f8f93          	addi	t6,t6,128
    106c:	080f0f13          	addi	t5,t5,128
    1070:	2ec5d663          	bge	a1,a2,135c <blurring+0x8ec>
    1074:	00700613          	li	a2,7
    1078:	41ffd593          	srai	a1,t6,0x1f
    107c:	0ff5f593          	zext.b	a1,a1
    1080:	01f585b3          	add	a1,a1,t6
    1084:	4085d813          	srai	a6,a1,0x8
    1088:	00300893          	li	a7,3
    108c:	00561593          	slli	a1,a2,0x5
    1090:	2b08de63          	bge	a7,a6,134c <blurring+0x8dc>
    1094:	00300813          	li	a6,3
    1098:	41ff5613          	srai	a2,t5,0x1f
    109c:	0ff67613          	zext.b	a2,a2
    10a0:	01e60633          	add	a2,a2,t5
    10a4:	40865613          	srai	a2,a2,0x8
    10a8:	00700893          	li	a7,7
    10ac:	010585b3          	add	a1,a1,a6
    10b0:	28c8d663          	bge	a7,a2,133c <blurring+0x8cc>
    10b4:	00700613          	li	a2,7
    10b8:	00261613          	slli	a2,a2,0x2
    10bc:	00c58633          	add	a2,a1,a2
    10c0:	00c90023          	sb	a2,0(s2)
    10c4:	ec5ff06f          	j	f88 <blurring+0x518>
    10c8:	fffed7b7          	lui	a5,0xfffed
    10cc:	33078793          	addi	a5,a5,816 # fffed330 <_stack_end+0xffed8884>
    10d0:	008787b3          	add	a5,a5,s0
    10d4:	0007a783          	lw	a5,0(a5)
    10d8:	00010093          	mv	ra,sp
    10dc:	40f10133          	sub	sp,sp,a5
    10e0:	00010f13          	mv	t5,sp
    10e4:	000f0593          	mv	a1,t5
    10e8:	00000613          	li	a2,0
    10ec:	00100893          	li	a7,1
    10f0:	0115a023          	sw	a7,0(a1)
    10f4:	00160613          	addi	a2,a2,1
    10f8:	00458593          	addi	a1,a1,4
    10fc:	ff561ae3          	bne	a2,s5,10f0 <blurring+0x680>
    1100:	00000393          	li	t2,0
    1104:	00000e93          	li	t4,0
    1108:	00000f93          	li	t6,0
    110c:	00000893          	li	a7,0
    1110:	011b87b3          	add	a5,s7,a7
    1114:	0007c783          	lbu	a5,0(a5)
    1118:	000f2683          	lw	a3,0(t5)
    111c:	00188893          	addi	a7,a7,1
    1120:	0027d713          	srli	a4,a5,0x2
    1124:	0037f613          	andi	a2,a5,3
    1128:	00777713          	andi	a4,a4,7
    112c:	0057d793          	srli	a5,a5,0x5
    1130:	02d60633          	mul	a2,a2,a3
    1134:	004f0f13          	addi	t5,t5,4
    1138:	02d70733          	mul	a4,a4,a3
    113c:	00cf8fb3          	add	t6,t6,a2
    1140:	02d787b3          	mul	a5,a5,a3
    1144:	00ee8eb3          	add	t4,t4,a4
    1148:	00f383b3          	add	t2,t2,a5
    114c:	fd58c2e3          	blt	a7,s5,1110 <blurring+0x6a0>
    1150:	401ad593          	srai	a1,s5,0x1
    1154:	01d58633          	add	a2,a1,t4
    1158:	03564633          	div	a2,a2,s5
    115c:	00700813          	li	a6,7
    1160:	01f58fb3          	add	t6,a1,t6
    1164:	007585b3          	add	a1,a1,t2
    1168:	04c85263          	bge	a6,a2,11ac <blurring+0x73c>
    116c:	0355c5b3          	div	a1,a1,s5
    1170:	00700613          	li	a2,7
    1174:	00700813          	li	a6,7
    1178:	00261613          	slli	a2,a2,0x2
    117c:	04b85663          	bge	a6,a1,11c8 <blurring+0x758>
    1180:	035fcfb3          	div	t6,t6,s5
    1184:	00700593          	li	a1,7
    1188:	00559593          	slli	a1,a1,0x5
    118c:	00300813          	li	a6,3
    1190:	00b60633          	add	a2,a2,a1
    1194:	05f85a63          	bge	a6,t6,11e8 <blurring+0x778>
    1198:	00300f93          	li	t6,3
    119c:	01f60633          	add	a2,a2,t6
    11a0:	00c90023          	sb	a2,0(s2)
    11a4:	00008113          	mv	sp,ra
    11a8:	de1ff06f          	j	f88 <blurring+0x518>
    11ac:	0355c5b3          	div	a1,a1,s5
    11b0:	fff64813          	not	a6,a2
    11b4:	41f85813          	srai	a6,a6,0x1f
    11b8:	01067633          	and	a2,a2,a6
    11bc:	00700813          	li	a6,7
    11c0:	00261613          	slli	a2,a2,0x2
    11c4:	fab84ee3          	blt	a6,a1,1180 <blurring+0x710>
    11c8:	035fcfb3          	div	t6,t6,s5
    11cc:	fff5c813          	not	a6,a1
    11d0:	41f85813          	srai	a6,a6,0x1f
    11d4:	0105f5b3          	and	a1,a1,a6
    11d8:	00559593          	slli	a1,a1,0x5
    11dc:	00300813          	li	a6,3
    11e0:	00b60633          	add	a2,a2,a1
    11e4:	fbf84ae3          	blt	a6,t6,1198 <blurring+0x728>
    11e8:	ffffc593          	not	a1,t6
    11ec:	41f5d593          	srai	a1,a1,0x1f
    11f0:	00bfffb3          	and	t6,t6,a1
    11f4:	fa9ff06f          	j	119c <blurring+0x72c>
    11f8:	16cc8a63          	beq	s9,a2,136c <blurring+0x8fc>
    11fc:	d86c96e3          	bne	s9,t1,f88 <blurring+0x518>
    1200:	fffed637          	lui	a2,0xfffed
    1204:	000158b7          	lui	a7,0x15
    1208:	95c88893          	addi	a7,a7,-1700 # 1495c <output_bmp_len+0x4>
    120c:	35c60793          	addi	a5,a2,860 # fffed35c <_stack_end+0xffed88b0>
    1210:	06488593          	addi	a1,a7,100
    1214:	00878633          	add	a2,a5,s0
    1218:	0c888893          	addi	a7,a7,200
    121c:	0005a803          	lw	a6,0(a1)
    1220:	0045a503          	lw	a0,4(a1)
    1224:	0085a683          	lw	a3,8(a1)
    1228:	00c5a703          	lw	a4,12(a1)
    122c:	0105a783          	lw	a5,16(a1)
    1230:	01062023          	sw	a6,0(a2)
    1234:	00a62223          	sw	a0,4(a2)
    1238:	00d62423          	sw	a3,8(a2)
    123c:	00e62623          	sw	a4,12(a2)
    1240:	00f62823          	sw	a5,16(a2)
    1244:	01458593          	addi	a1,a1,20
    1248:	01460613          	addi	a2,a2,20
    124c:	fd1598e3          	bne	a1,a7,121c <blurring+0x7ac>
    1250:	fffed8b7          	lui	a7,0xfffed
    1254:	35c88793          	addi	a5,a7,860 # fffed35c <_stack_end+0xffed88b0>
    1258:	008788b3          	add	a7,a5,s0
    125c:	000b8813          	mv	a6,s7
    1260:	06488093          	addi	ra,a7,100
    1264:	00000e13          	li	t3,0
    1268:	00000f93          	li	t6,0
    126c:	00000393          	li	t2,0
    1270:	00084783          	lbu	a5,0(a6)
    1274:	0008a683          	lw	a3,0(a7)
    1278:	00488893          	addi	a7,a7,4
    127c:	0027d713          	srli	a4,a5,0x2
    1280:	0037f613          	andi	a2,a5,3
    1284:	00777713          	andi	a4,a4,7
    1288:	0057d793          	srli	a5,a5,0x5
    128c:	02d60633          	mul	a2,a2,a3
    1290:	00180813          	addi	a6,a6,1
    1294:	02d70733          	mul	a4,a4,a3
    1298:	00c383b3          	add	t2,t2,a2
    129c:	02d787b3          	mul	a5,a5,a3
    12a0:	00ef8fb3          	add	t6,t6,a4
    12a4:	00fe0e33          	add	t3,t3,a5
    12a8:	fc1894e3          	bne	a7,ra,1270 <blurring+0x800>
    12ac:	00700613          	li	a2,7
    12b0:	1fc65e63          	bge	a2,t3,14ac <blurring+0xa3c>
    12b4:	00700e13          	li	t3,7
    12b8:	00300593          	li	a1,3
    12bc:	005e1613          	slli	a2,t3,0x5
    12c0:	1c75de63          	bge	a1,t2,149c <blurring+0xa2c>
    12c4:	00300393          	li	t2,3
    12c8:	00700593          	li	a1,7
    12cc:	00760633          	add	a2,a2,t2
    12d0:	1bf5de63          	bge	a1,t6,148c <blurring+0xa1c>
    12d4:	00700f93          	li	t6,7
    12d8:	002f9f93          	slli	t6,t6,0x2
    12dc:	01f60633          	add	a2,a2,t6
    12e0:	00c90023          	sb	a2,0(s2)
    12e4:	ca5ff06f          	j	f88 <blurring+0x518>
    12e8:	fffed737          	lui	a4,0xfffed
    12ec:	34470713          	addi	a4,a4,836 # fffed344 <_stack_end+0xffed8898>
    12f0:	140c0793          	addi	a5,s8,320
    12f4:	00870733          	add	a4,a4,s0
    12f8:	00f72023          	sw	a5,0(a4)
    12fc:	00000493          	li	s1,0
    1300:	95bd5ce3          	bge	s10,s11,c58 <blurring+0x1e8>
    1304:	bc5ff06f          	j	ec8 <blurring+0x458>
    1308:	c60314e3          	bnez	t1,f70 <blurring+0x500>
    130c:	fffed7b7          	lui	a5,0xfffed
    1310:	33078793          	addi	a5,a5,816 # fffed330 <_stack_end+0xffed8884>
    1314:	008787b3          	add	a5,a5,s0
    1318:	0007a783          	lw	a5,0(a5)
    131c:	00010093          	mv	ra,sp
    1320:	40f10133          	sub	sp,sp,a5
    1324:	00010f13          	mv	t5,sp
    1328:	da0a9ee3          	bnez	s5,10e4 <blurring+0x674>
    132c:	00000393          	li	t2,0
    1330:	00000e93          	li	t4,0
    1334:	00000f93          	li	t6,0
    1338:	e19ff06f          	j	1150 <blurring+0x6e0>
    133c:	fff64813          	not	a6,a2
    1340:	41f85813          	srai	a6,a6,0x1f
    1344:	01067633          	and	a2,a2,a6
    1348:	d71ff06f          	j	10b8 <blurring+0x648>
    134c:	fff84613          	not	a2,a6
    1350:	41f65613          	srai	a2,a2,0x1f
    1354:	00c87833          	and	a6,a6,a2
    1358:	d41ff06f          	j	1098 <blurring+0x628>
    135c:	fff64593          	not	a1,a2
    1360:	41f5d593          	srai	a1,a1,0x1f
    1364:	00b67633          	and	a2,a2,a1
    1368:	d11ff06f          	j	1078 <blurring+0x608>
    136c:	001bc883          	lbu	a7,1(s7)
    1370:	004bce03          	lbu	t3,4(s7)
    1374:	003bc603          	lbu	a2,3(s7)
    1378:	005bcf03          	lbu	t5,5(s7)
    137c:	005e5f93          	srli	t6,t3,0x5
    1380:	0058d393          	srli	t2,a7,0x5
    1384:	007bce83          	lbu	t4,7(s7)
    1388:	407003b3          	neg	t2,t2
    138c:	00565593          	srli	a1,a2,0x5
    1390:	002f9813          	slli	a6,t6,0x2
    1394:	01f80833          	add	a6,a6,t6
    1398:	40b385b3          	sub	a1,t2,a1
    139c:	010585b3          	add	a1,a1,a6
    13a0:	005f5813          	srli	a6,t5,0x5
    13a4:	410585b3          	sub	a1,a1,a6
    13a8:	005ed813          	srli	a6,t4,0x5
    13ac:	410585b3          	sub	a1,a1,a6
    13b0:	00700813          	li	a6,7
    13b4:	0cb85463          	bge	a6,a1,147c <blurring+0xa0c>
    13b8:	00700593          	li	a1,7
    13bc:	003e7093          	andi	ra,t3,3
    13c0:	0038f813          	andi	a6,a7,3
    13c4:	41000833          	neg	a6,a6
    13c8:	00367393          	andi	t2,a2,3
    13cc:	00209f93          	slli	t6,ra,0x2
    13d0:	001f8fb3          	add	t6,t6,ra
    13d4:	40780833          	sub	a6,a6,t2
    13d8:	01f80833          	add	a6,a6,t6
    13dc:	003f7f93          	andi	t6,t5,3
    13e0:	41f80833          	sub	a6,a6,t6
    13e4:	003eff93          	andi	t6,t4,3
    13e8:	41f80833          	sub	a6,a6,t6
    13ec:	00300f93          	li	t6,3
    13f0:	00559593          	slli	a1,a1,0x5
    13f4:	070fdc63          	bge	t6,a6,146c <blurring+0x9fc>
    13f8:	00300813          	li	a6,3
    13fc:	0028d893          	srli	a7,a7,0x2
    1400:	002e5e13          	srli	t3,t3,0x2
    1404:	007e7e13          	andi	t3,t3,7
    1408:	0078f893          	andi	a7,a7,7
    140c:	00265613          	srli	a2,a2,0x2
    1410:	411008b3          	neg	a7,a7
    1414:	002e1f93          	slli	t6,t3,0x2
    1418:	00767613          	andi	a2,a2,7
    141c:	40c88633          	sub	a2,a7,a2
    1420:	01cf8fb3          	add	t6,t6,t3
    1424:	002f5e13          	srli	t3,t5,0x2
    1428:	01f60633          	add	a2,a2,t6
    142c:	007e7e13          	andi	t3,t3,7
    1430:	002ed893          	srli	a7,t4,0x2
    1434:	0078f893          	andi	a7,a7,7
    1438:	41c60633          	sub	a2,a2,t3
    143c:	41160633          	sub	a2,a2,a7
    1440:	00700893          	li	a7,7
    1444:	010585b3          	add	a1,a1,a6
    1448:	00c8d863          	bge	a7,a2,1458 <blurring+0x9e8>
    144c:	00700613          	li	a2,7
    1450:	00261613          	slli	a2,a2,0x2
    1454:	a39ff06f          	j	e8c <blurring+0x41c>
    1458:	fff64813          	not	a6,a2
    145c:	41f85813          	srai	a6,a6,0x1f
    1460:	01067633          	and	a2,a2,a6
    1464:	00261613          	slli	a2,a2,0x2
    1468:	a25ff06f          	j	e8c <blurring+0x41c>
    146c:	fff84f93          	not	t6,a6
    1470:	41ffdf93          	srai	t6,t6,0x1f
    1474:	01f87833          	and	a6,a6,t6
    1478:	f85ff06f          	j	13fc <blurring+0x98c>
    147c:	fff5c813          	not	a6,a1
    1480:	41f85813          	srai	a6,a6,0x1f
    1484:	0105f5b3          	and	a1,a1,a6
    1488:	f35ff06f          	j	13bc <blurring+0x94c>
    148c:	ffffc593          	not	a1,t6
    1490:	41f5d593          	srai	a1,a1,0x1f
    1494:	00bfffb3          	and	t6,t6,a1
    1498:	e41ff06f          	j	12d8 <blurring+0x868>
    149c:	fff3c593          	not	a1,t2
    14a0:	41f5d593          	srai	a1,a1,0x1f
    14a4:	00b3f3b3          	and	t2,t2,a1
    14a8:	e21ff06f          	j	12c8 <blurring+0x858>
    14ac:	fffe4613          	not	a2,t3
    14b0:	41f65613          	srai	a2,a2,0x1f
    14b4:	00ce7e33          	and	t3,t3,a2
    14b8:	e01ff06f          	j	12b8 <blurring+0x848>
    14bc:	fffed737          	lui	a4,0xfffed
    14c0:	33070793          	addi	a5,a4,816 # fffed330 <_stack_end+0xffed8884>
    14c4:	008787b3          	add	a5,a5,s0
    14c8:	0007a783          	lw	a5,0(a5)
    14cc:	00010a13          	mv	s4,sp
    14d0:	40f10133          	sub	sp,sp,a5
    14d4:	32070793          	addi	a5,a4,800
    14d8:	008787b3          	add	a5,a5,s0
    14dc:	0007a783          	lw	a5,0(a5)
    14e0:	00010c13          	mv	s8,sp
    14e4:	0c07c863          	bltz	a5,15b4 <blurring+0xb44>
    14e8:	34870693          	addi	a3,a4,840
    14ec:	008686b3          	add	a3,a3,s0
    14f0:	0126a023          	sw	s2,0(a3)
    14f4:	30c70693          	addi	a3,a4,780
    14f8:	008686b3          	add	a3,a3,s0
    14fc:	0146a023          	sw	s4,0(a3)
    1500:	30870693          	addi	a3,a4,776
    1504:	008686b3          	add	a3,a3,s0
    1508:	0096a023          	sw	s1,0(a3)
    150c:	32470693          	addi	a3,a4,804
    1510:	008686b3          	add	a3,a3,s0
    1514:	0006a483          	lw	s1,0(a3)
    1518:	30470693          	addi	a3,a4,772
    151c:	008686b3          	add	a3,a3,s0
    1520:	0136a023          	sw	s3,0(a3)
    1524:	00078993          	mv	s3,a5
    1528:	31c70793          	addi	a5,a4,796
    152c:	008787b3          	add	a5,a5,s0
    1530:	0007aa03          	lw	s4,0(a5)
    1534:	30070793          	addi	a5,a4,768
    1538:	00000893          	li	a7,0
    153c:	008787b3          	add	a5,a5,s0
    1540:	000c0e93          	mv	t4,s8
    1544:	00100b13          	li	s6,1
    1548:	00088913          	mv	s2,a7
    154c:	0067a023          	sw	t1,0(a5)
    1550:	172c8063          	beq	s9,s2,16b0 <blurring+0xc40>
    1554:	000e8513          	mv	a0,t4
    1558:	000a0613          	mv	a2,s4
    155c:	00000593          	li	a1,0
    1560:	ba0ff0ef          	jal	900 <memset>
    1564:	00050e93          	mv	t4,a0
    1568:	00190913          	addi	s2,s2,1
    156c:	014e8eb3          	add	t4,t4,s4
    1570:	ff2490e3          	bne	s1,s2,1550 <blurring+0xae0>
    1574:	fffed7b7          	lui	a5,0xfffed
    1578:	34878713          	addi	a4,a5,840 # fffed348 <_stack_end+0xffed889c>
    157c:	00870733          	add	a4,a4,s0
    1580:	00072903          	lw	s2,0(a4)
    1584:	30c78713          	addi	a4,a5,780
    1588:	00870733          	add	a4,a4,s0
    158c:	00072a03          	lw	s4,0(a4)
    1590:	30878713          	addi	a4,a5,776
    1594:	00870733          	add	a4,a4,s0
    1598:	00072483          	lw	s1,0(a4)
    159c:	30478713          	addi	a4,a5,772
    15a0:	30078793          	addi	a5,a5,768
    15a4:	00870733          	add	a4,a4,s0
    15a8:	008787b3          	add	a5,a5,s0
    15ac:	00072983          	lw	s3,0(a4)
    15b0:	0007a303          	lw	t1,0(a5)
    15b4:	15505663          	blez	s5,1700 <blurring+0xc90>
    15b8:	fffed7b7          	lui	a5,0xfffed
    15bc:	31878793          	addi	a5,a5,792 # fffed318 <_stack_end+0xffed886c>
    15c0:	008787b3          	add	a5,a5,s0
    15c4:	0007a783          	lw	a5,0(a5)
    15c8:	000c0e13          	mv	t3,s8
    15cc:	000b8813          	mv	a6,s7
    15d0:	00fc00b3          	add	ra,s8,a5
    15d4:	00000e93          	li	t4,0
    15d8:	00000893          	li	a7,0
    15dc:	00000f13          	li	t5,0
    15e0:	00084783          	lbu	a5,0(a6)
    15e4:	000e2683          	lw	a3,0(t3)
    15e8:	004e0e13          	addi	t3,t3,4
    15ec:	0027d713          	srli	a4,a5,0x2
    15f0:	0037f613          	andi	a2,a5,3
    15f4:	00777713          	andi	a4,a4,7
    15f8:	0057d793          	srli	a5,a5,0x5
    15fc:	02d60633          	mul	a2,a2,a3
    1600:	00180813          	addi	a6,a6,1
    1604:	02d70733          	mul	a4,a4,a3
    1608:	00cf0f33          	add	t5,t5,a2
    160c:	02d787b3          	mul	a5,a5,a3
    1610:	00e888b3          	add	a7,a7,a4
    1614:	00fe8eb3          	add	t4,t4,a5
    1618:	fc1e14e3          	bne	t3,ra,15e0 <blurring+0xb70>
    161c:	fffed737          	lui	a4,0xfffed
    1620:	31470793          	addi	a5,a4,788 # fffed314 <_stack_end+0xffed8868>
    1624:	008787b3          	add	a5,a5,s0
    1628:	32470713          	addi	a4,a4,804
    162c:	0007a783          	lw	a5,0(a5)
    1630:	00870733          	add	a4,a4,s0
    1634:	00072703          	lw	a4,0(a4)
    1638:	00f88633          	add	a2,a7,a5
    163c:	00700893          	li	a7,7
    1640:	02e64633          	div	a2,a2,a4
    1644:	01e78833          	add	a6,a5,t5
    1648:	00fe85b3          	add	a1,t4,a5
    164c:	0ac8d263          	bge	a7,a2,16f0 <blurring+0xc80>
    1650:	00700613          	li	a2,7
    1654:	fffed7b7          	lui	a5,0xfffed
    1658:	32478793          	addi	a5,a5,804 # fffed324 <_stack_end+0xffed8878>
    165c:	008787b3          	add	a5,a5,s0
    1660:	0007a783          	lw	a5,0(a5)
    1664:	00700893          	li	a7,7
    1668:	00261613          	slli	a2,a2,0x2
    166c:	02f5c5b3          	div	a1,a1,a5
    1670:	06b8d863          	bge	a7,a1,16e0 <blurring+0xc70>
    1674:	00700593          	li	a1,7
    1678:	fffed7b7          	lui	a5,0xfffed
    167c:	32478793          	addi	a5,a5,804 # fffed324 <_stack_end+0xffed8878>
    1680:	008787b3          	add	a5,a5,s0
    1684:	0007a783          	lw	a5,0(a5)
    1688:	00559593          	slli	a1,a1,0x5
    168c:	00300893          	li	a7,3
    1690:	02f84833          	div	a6,a6,a5
    1694:	00b60633          	add	a2,a2,a1
    1698:	0308dc63          	bge	a7,a6,16d0 <blurring+0xc60>
    169c:	00300813          	li	a6,3
    16a0:	01060633          	add	a2,a2,a6
    16a4:	00c90023          	sb	a2,0(s2)
    16a8:	000a0113          	mv	sp,s4
    16ac:	8ddff06f          	j	f88 <blurring+0x518>
    16b0:	000e8713          	mv	a4,t4
    16b4:	00000793          	li	a5,0
    16b8:	01672023          	sw	s6,0(a4)
    16bc:	00078693          	mv	a3,a5
    16c0:	00470713          	addi	a4,a4,4
    16c4:	00178793          	addi	a5,a5,1
    16c8:	fed998e3          	bne	s3,a3,16b8 <blurring+0xc48>
    16cc:	e9dff06f          	j	1568 <blurring+0xaf8>
    16d0:	fff84593          	not	a1,a6
    16d4:	41f5d593          	srai	a1,a1,0x1f
    16d8:	00b87833          	and	a6,a6,a1
    16dc:	fc5ff06f          	j	16a0 <blurring+0xc30>
    16e0:	fff5c893          	not	a7,a1
    16e4:	41f8d893          	srai	a7,a7,0x1f
    16e8:	0115f5b3          	and	a1,a1,a7
    16ec:	f8dff06f          	j	1678 <blurring+0xc08>
    16f0:	fff64893          	not	a7,a2
    16f4:	41f8d893          	srai	a7,a7,0x1f
    16f8:	01167633          	and	a2,a2,a7
    16fc:	f59ff06f          	j	1654 <blurring+0xbe4>
    1700:	00000e93          	li	t4,0
    1704:	00000893          	li	a7,0
    1708:	00000f13          	li	t5,0
    170c:	f11ff06f          	j	161c <blurring+0xbac>

00001710 <updateVGADisplay>:
    1710:	ff010113          	addi	sp,sp,-16
    1714:	00112623          	sw	ra,12(sp)
    1718:	e59fe0ef          	jal	570 <blurring.constprop.0>
    171c:	fffed837          	lui	a6,0xfffed
    1720:	00013537          	lui	a0,0x13
    1724:	000028b7          	lui	a7,0x2
    1728:	8cc88893          	addi	a7,a7,-1844 # 18cc <output_bmp>
    172c:	54080813          	addi	a6,a6,1344 # fffed540 <_stack_end+0xffed8a94>
    1730:	08a50513          	addi	a0,a0,138 # 1308a <output_bmp+0x117be>
    1734:	08000337          	lui	t1,0x8000
    1738:	41180833          	sub	a6,a6,a7
    173c:	00a88533          	add	a0,a7,a0
    1740:	b7630313          	addi	t1,t1,-1162 # 7fffb76 <_stack_end+0x7eeb0ca>
    1744:	48a88893          	addi	a7,a7,1162
    1748:	00050593          	mv	a1,a0
    174c:	ec050513          	addi	a0,a0,-320
    1750:	00050793          	mv	a5,a0
    1754:	00680633          	add	a2,a6,t1
    1758:	0007c683          	lbu	a3,0(a5)
    175c:	00f60733          	add	a4,a2,a5
    1760:	00178793          	addi	a5,a5,1
    1764:	00d70023          	sb	a3,0(a4)
    1768:	feb798e3          	bne	a5,a1,1758 <updateVGADisplay+0x48>
    176c:	28080813          	addi	a6,a6,640
    1770:	fca89ce3          	bne	a7,a0,1748 <updateVGADisplay+0x38>
    1774:	00c12083          	lw	ra,12(sp)
    1778:	01010113          	addi	sp,sp,16
    177c:	00008067          	ret

00001780 <get_sw>:
    1780:	040007b7          	lui	a5,0x4000
    1784:	0107a503          	lw	a0,16(a5) # 4000010 <_stack_end+0x3eeb564>
    1788:	3ff57513          	andi	a0,a0,1023
    178c:	00008067          	ret

00001790 <clearVGADisplay>:
    1790:	08013737          	lui	a4,0x8013
    1794:	080007b7          	lui	a5,0x8000
    1798:	c0070713          	addi	a4,a4,-1024 # 8012c00 <_stack_end+0x7efe154>
    179c:	00078023          	sb	zero,0(a5) # 8000000 <_stack_end+0x7eeb554>
    17a0:	00178793          	addi	a5,a5,1
    17a4:	fee79ce3          	bne	a5,a4,179c <clearVGADisplay+0xc>
    17a8:	00008067          	ret

000017ac <delay>:
    17ac:	ff010113          	addi	sp,sp,-16
    17b0:	00012423          	sw	zero,8(sp)
    17b4:	00812783          	lw	a5,8(sp)
    17b8:	02a7fe63          	bgeu	a5,a0,17f4 <delay+0x48>
    17bc:	06300713          	li	a4,99
    17c0:	00012623          	sw	zero,12(sp)
    17c4:	00c12783          	lw	a5,12(sp)
    17c8:	00f76c63          	bltu	a4,a5,17e0 <delay+0x34>
    17cc:	00c12783          	lw	a5,12(sp)
    17d0:	00178793          	addi	a5,a5,1
    17d4:	00f12623          	sw	a5,12(sp)
    17d8:	00c12783          	lw	a5,12(sp)
    17dc:	fef778e3          	bgeu	a4,a5,17cc <delay+0x20>
    17e0:	00812783          	lw	a5,8(sp)
    17e4:	00178793          	addi	a5,a5,1
    17e8:	00f12423          	sw	a5,8(sp)
    17ec:	00812783          	lw	a5,8(sp)
    17f0:	fca7e8e3          	bltu	a5,a0,17c0 <delay+0x14>
    17f4:	01010113          	addi	sp,sp,16
    17f8:	00008067          	ret

000017fc <main>:
    17fc:	ff010113          	addi	sp,sp,-16
    1800:	08013737          	lui	a4,0x8013
    1804:	00112623          	sw	ra,12(sp)
    1808:	080007b7          	lui	a5,0x8000
    180c:	c0070713          	addi	a4,a4,-1024 # 8012c00 <_stack_end+0x7efe154>
    1810:	00078023          	sb	zero,0(a5) # 8000000 <_stack_end+0x7eeb554>
    1814:	00178793          	addi	a5,a5,1
    1818:	fee79ce3          	bne	a5,a4,1810 <main+0x14>
    181c:	00100513          	li	a0,1
    1820:	00500593          	li	a1,5
    1824:	eedff0ef          	jal	1710 <updateVGADisplay>
    1828:	00c12083          	lw	ra,12(sp)
    182c:	00000513          	li	a0,0
    1830:	01010113          	addi	sp,sp,16
    1834:	00008067          	ret
